	.file	"caravan.cpp"
	.text
	.section	.text._ZnwmPv,"axG",@progbits,_ZnwmPv,comdat
	.weak	_ZnwmPv
	.type	_ZnwmPv, @function
_ZnwmPv:
.LFB286:
	.cfi_startproc
	pushq	%rbp
	.cfi_def_cfa_offset 16
	.cfi_offset 6, -16
	movq	%rsp, %rbp
	.cfi_def_cfa_register 6
	movq	%rdi, -8(%rbp)
	movq	%rsi, -16(%rbp)
	movq	-16(%rbp), %rax
	popq	%rbp
	.cfi_def_cfa 7, 8
	ret
	.cfi_endproc
.LFE286:
	.size	_ZnwmPv, .-_ZnwmPv
	.section	.rodata
	.type	_ZStL19piecewise_construct, @object
	.size	_ZStL19piecewise_construct, 1
_ZStL19piecewise_construct:
	.zero	1
	.section	.text._ZN9__gnu_cxx5__ops16__iter_less_iterEv,"axG",@progbits,_ZN9__gnu_cxx5__ops16__iter_less_iterEv,comdat
	.weak	_ZN9__gnu_cxx5__ops16__iter_less_iterEv
	.type	_ZN9__gnu_cxx5__ops16__iter_less_iterEv, @function
_ZN9__gnu_cxx5__ops16__iter_less_iterEv:
.LFB505:
	.cfi_startproc
	pushq	%rbp
	.cfi_def_cfa_offset 16
	.cfi_offset 6, -16
	movq	%rsp, %rbp
	.cfi_def_cfa_register 6
	popq	%rbp
	.cfi_def_cfa 7, 8
	ret
	.cfi_endproc
.LFE505:
	.size	_ZN9__gnu_cxx5__ops16__iter_less_iterEv, .-_ZN9__gnu_cxx5__ops16__iter_less_iterEv
	.section	.text._ZN9__gnu_cxx5__ops14_Iter_less_valC2ENS0_15_Iter_less_iterE,"axG",@progbits,_ZN9__gnu_cxx5__ops14_Iter_less_valC5ENS0_15_Iter_less_iterE,comdat
	.align 2
	.weak	_ZN9__gnu_cxx5__ops14_Iter_less_valC2ENS0_15_Iter_less_iterE
	.type	_ZN9__gnu_cxx5__ops14_Iter_less_valC2ENS0_15_Iter_less_iterE, @function
_ZN9__gnu_cxx5__ops14_Iter_less_valC2ENS0_15_Iter_less_iterE:
.LFB507:
	.cfi_startproc
	pushq	%rbp
	.cfi_def_cfa_offset 16
	.cfi_offset 6, -16
	movq	%rsp, %rbp
	.cfi_def_cfa_register 6
	movq	%rdi, -8(%rbp)
	nop
	popq	%rbp
	.cfi_def_cfa 7, 8
	ret
	.cfi_endproc
.LFE507:
	.size	_ZN9__gnu_cxx5__ops14_Iter_less_valC2ENS0_15_Iter_less_iterE, .-_ZN9__gnu_cxx5__ops14_Iter_less_valC2ENS0_15_Iter_less_iterE
	.weak	_ZN9__gnu_cxx5__ops14_Iter_less_valC1ENS0_15_Iter_less_iterE
	.set	_ZN9__gnu_cxx5__ops14_Iter_less_valC1ENS0_15_Iter_less_iterE,_ZN9__gnu_cxx5__ops14_Iter_less_valC2ENS0_15_Iter_less_iterE
	.section	.text._ZN9__gnu_cxx5__ops15__val_comp_iterENS0_15_Iter_less_iterE,"axG",@progbits,_ZN9__gnu_cxx5__ops15__val_comp_iterENS0_15_Iter_less_iterE,comdat
	.weak	_ZN9__gnu_cxx5__ops15__val_comp_iterENS0_15_Iter_less_iterE
	.type	_ZN9__gnu_cxx5__ops15__val_comp_iterENS0_15_Iter_less_iterE, @function
_ZN9__gnu_cxx5__ops15__val_comp_iterENS0_15_Iter_less_iterE:
.LFB517:
	.cfi_startproc
	pushq	%rbp
	.cfi_def_cfa_offset 16
	.cfi_offset 6, -16
	movq	%rsp, %rbp
	.cfi_def_cfa_register 6
	popq	%rbp
	.cfi_def_cfa 7, 8
	ret
	.cfi_endproc
.LFE517:
	.size	_ZN9__gnu_cxx5__ops15__val_comp_iterENS0_15_Iter_less_iterE, .-_ZN9__gnu_cxx5__ops15__val_comp_iterENS0_15_Iter_less_iterE
	.section	.text._ZSt4__lgl,"axG",@progbits,_ZSt4__lgl,comdat
	.weak	_ZSt4__lgl
	.type	_ZSt4__lgl, @function
_ZSt4__lgl:
.LFB606:
	.cfi_startproc
	pushq	%rbp
	.cfi_def_cfa_offset 16
	.cfi_offset 6, -16
	movq	%rsp, %rbp
	.cfi_def_cfa_register 6
	movq	%rdi, -8(%rbp)
	movq	-8(%rbp), %rax
	bsrq	%rax, %rax
	xorq	$63, %rax
	movl	$63, %edx
	subl	%eax, %edx
	movl	%edx, %eax
	cltq
	popq	%rbp
	.cfi_def_cfa 7, 8
	ret
	.cfi_endproc
.LFE606:
	.size	_ZSt4__lgl, .-_ZSt4__lgl
	.section	.text._ZSt16__deque_buf_sizem,"axG",@progbits,_ZSt16__deque_buf_sizem,comdat
	.weak	_ZSt16__deque_buf_sizem
	.type	_ZSt16__deque_buf_sizem, @function
_ZSt16__deque_buf_sizem:
.LFB2723:
	.cfi_startproc
	pushq	%rbp
	.cfi_def_cfa_offset 16
	.cfi_offset 6, -16
	movq	%rsp, %rbp
	.cfi_def_cfa_register 6
	movq	%rdi, -8(%rbp)
	cmpq	$511, -8(%rbp)
	ja	.L11
	movl	$512, %eax
	movl	$0, %edx
	divq	-8(%rbp)
	jmp	.L13
.L11:
	movl	$1, %eax
.L13:
	popq	%rbp
	.cfi_def_cfa 7, 8
	ret
	.cfi_endproc
.LFE2723:
	.size	_ZSt16__deque_buf_sizem, .-_ZSt16__deque_buf_sizem
	.section	.rodata
	.type	_ZStL13allocator_arg, @object
	.size	_ZStL13allocator_arg, 1
_ZStL13allocator_arg:
	.zero	1
	.type	_ZStL6ignore, @object
	.size	_ZStL6ignore, 1
_ZStL6ignore:
	.zero	1
	.local	_ZStL8__ioinit
	.comm	_ZStL8__ioinit,1,1
	.section	.text._ZNSt8__detail17_List_node_headerC2Ev,"axG",@progbits,_ZNSt8__detail17_List_node_headerC5Ev,comdat
	.align 2
	.weak	_ZNSt8__detail17_List_node_headerC2Ev
	.type	_ZNSt8__detail17_List_node_headerC2Ev, @function
_ZNSt8__detail17_List_node_headerC2Ev:
.LFB3639:
	.cfi_startproc
	pushq	%rbp
	.cfi_def_cfa_offset 16
	.cfi_offset 6, -16
	movq	%rsp, %rbp
	.cfi_def_cfa_register 6
	subq	$16, %rsp
	movq	%rdi, -8(%rbp)
	movq	-8(%rbp), %rax
	movq	%rax, %rdi
	call	_ZNSt8__detail17_List_node_header7_M_initEv
	nop
	leave
	.cfi_def_cfa 7, 8
	ret
	.cfi_endproc
.LFE3639:
	.size	_ZNSt8__detail17_List_node_headerC2Ev, .-_ZNSt8__detail17_List_node_headerC2Ev
	.weak	_ZNSt8__detail17_List_node_headerC1Ev
	.set	_ZNSt8__detail17_List_node_headerC1Ev,_ZNSt8__detail17_List_node_headerC2Ev
	.section	.text._ZNSt8__detail17_List_node_header7_M_initEv,"axG",@progbits,_ZNSt8__detail17_List_node_header7_M_initEv,comdat
	.align 2
	.weak	_ZNSt8__detail17_List_node_header7_M_initEv
	.type	_ZNSt8__detail17_List_node_header7_M_initEv, @function
_ZNSt8__detail17_List_node_header7_M_initEv:
.LFB3645:
	.cfi_startproc
	pushq	%rbp
	.cfi_def_cfa_offset 16
	.cfi_offset 6, -16
	movq	%rsp, %rbp
	.cfi_def_cfa_register 6
	movq	%rdi, -8(%rbp)
	movq	-8(%rbp), %rdx
	movq	-8(%rbp), %rax
	movq	%rdx, 8(%rax)
	movq	-8(%rbp), %rax
	movq	8(%rax), %rdx
	movq	-8(%rbp), %rax
	movq	%rdx, (%rax)
	movq	-8(%rbp), %rax
	movq	$0, 16(%rax)
	nop
	popq	%rbp
	.cfi_def_cfa 7, 8
	ret
	.cfi_endproc
.LFE3645:
	.size	_ZNSt8__detail17_List_node_header7_M_initEv, .-_ZNSt8__detail17_List_node_header7_M_initEv
	.section	.rodata
	.align 4
	.type	_ZN9__gnu_cxxL21__default_lock_policyE, @object
	.size	_ZN9__gnu_cxxL21__default_lock_policyE, 4
_ZN9__gnu_cxxL21__default_lock_policyE:
	.long	2
	.type	_ZStL10defer_lock, @object
	.size	_ZStL10defer_lock, 1
_ZStL10defer_lock:
	.zero	1
	.type	_ZStL11try_to_lock, @object
	.size	_ZStL11try_to_lock, 1
_ZStL11try_to_lock:
	.zero	1
	.type	_ZStL10adopt_lock, @object
	.size	_ZStL10adopt_lock, 1
_ZStL10adopt_lock:
	.zero	1
	.align 4
	.type	_ZNSt15regex_constantsL5icaseE, @object
	.size	_ZNSt15regex_constantsL5icaseE, 4
_ZNSt15regex_constantsL5icaseE:
	.long	1
	.align 4
	.type	_ZNSt15regex_constantsL6nosubsE, @object
	.size	_ZNSt15regex_constantsL6nosubsE, 4
_ZNSt15regex_constantsL6nosubsE:
	.long	2
	.align 4
	.type	_ZNSt15regex_constantsL8optimizeE, @object
	.size	_ZNSt15regex_constantsL8optimizeE, 4
_ZNSt15regex_constantsL8optimizeE:
	.long	4
	.align 4
	.type	_ZNSt15regex_constantsL7collateE, @object
	.size	_ZNSt15regex_constantsL7collateE, 4
_ZNSt15regex_constantsL7collateE:
	.long	8
	.align 4
	.type	_ZNSt15regex_constantsL10ECMAScriptE, @object
	.size	_ZNSt15regex_constantsL10ECMAScriptE, 4
_ZNSt15regex_constantsL10ECMAScriptE:
	.long	16
	.align 4
	.type	_ZNSt15regex_constantsL5basicE, @object
	.size	_ZNSt15regex_constantsL5basicE, 4
_ZNSt15regex_constantsL5basicE:
	.long	32
	.align 4
	.type	_ZNSt15regex_constantsL8extendedE, @object
	.size	_ZNSt15regex_constantsL8extendedE, 4
_ZNSt15regex_constantsL8extendedE:
	.long	64
	.align 4
	.type	_ZNSt15regex_constantsL3awkE, @object
	.size	_ZNSt15regex_constantsL3awkE, 4
_ZNSt15regex_constantsL3awkE:
	.long	128
	.align 4
	.type	_ZNSt15regex_constantsL4grepE, @object
	.size	_ZNSt15regex_constantsL4grepE, 4
_ZNSt15regex_constantsL4grepE:
	.long	256
	.align 4
	.type	_ZNSt15regex_constantsL5egrepE, @object
	.size	_ZNSt15regex_constantsL5egrepE, 4
_ZNSt15regex_constantsL5egrepE:
	.long	512
	.align 4
	.type	_ZNSt15regex_constantsL12__polynomialE, @object
	.size	_ZNSt15regex_constantsL12__polynomialE, 4
_ZNSt15regex_constantsL12__polynomialE:
	.long	1024
	.align 4
	.type	_ZNSt15regex_constantsL13match_defaultE, @object
	.size	_ZNSt15regex_constantsL13match_defaultE, 4
_ZNSt15regex_constantsL13match_defaultE:
	.zero	4
	.align 4
	.type	_ZNSt15regex_constantsL13match_not_bolE, @object
	.size	_ZNSt15regex_constantsL13match_not_bolE, 4
_ZNSt15regex_constantsL13match_not_bolE:
	.long	1
	.align 4
	.type	_ZNSt15regex_constantsL13match_not_eolE, @object
	.size	_ZNSt15regex_constantsL13match_not_eolE, 4
_ZNSt15regex_constantsL13match_not_eolE:
	.long	2
	.align 4
	.type	_ZNSt15regex_constantsL13match_not_bowE, @object
	.size	_ZNSt15regex_constantsL13match_not_bowE, 4
_ZNSt15regex_constantsL13match_not_bowE:
	.long	4
	.align 4
	.type	_ZNSt15regex_constantsL13match_not_eowE, @object
	.size	_ZNSt15regex_constantsL13match_not_eowE, 4
_ZNSt15regex_constantsL13match_not_eowE:
	.long	8
	.align 4
	.type	_ZNSt15regex_constantsL9match_anyE, @object
	.size	_ZNSt15regex_constantsL9match_anyE, 4
_ZNSt15regex_constantsL9match_anyE:
	.long	16
	.align 4
	.type	_ZNSt15regex_constantsL14match_not_nullE, @object
	.size	_ZNSt15regex_constantsL14match_not_nullE, 4
_ZNSt15regex_constantsL14match_not_nullE:
	.long	32
	.align 4
	.type	_ZNSt15regex_constantsL16match_continuousE, @object
	.size	_ZNSt15regex_constantsL16match_continuousE, 4
_ZNSt15regex_constantsL16match_continuousE:
	.long	64
	.align 4
	.type	_ZNSt15regex_constantsL16match_prev_availE, @object
	.size	_ZNSt15regex_constantsL16match_prev_availE, 4
_ZNSt15regex_constantsL16match_prev_availE:
	.long	128
	.align 4
	.type	_ZNSt15regex_constantsL14format_defaultE, @object
	.size	_ZNSt15regex_constantsL14format_defaultE, 4
_ZNSt15regex_constantsL14format_defaultE:
	.zero	4
	.align 4
	.type	_ZNSt15regex_constantsL10format_sedE, @object
	.size	_ZNSt15regex_constantsL10format_sedE, 4
_ZNSt15regex_constantsL10format_sedE:
	.long	256
	.align 4
	.type	_ZNSt15regex_constantsL14format_no_copyE, @object
	.size	_ZNSt15regex_constantsL14format_no_copyE, 4
_ZNSt15regex_constantsL14format_no_copyE:
	.long	512
	.align 4
	.type	_ZNSt15regex_constantsL17format_first_onlyE, @object
	.size	_ZNSt15regex_constantsL17format_first_onlyE, 4
_ZNSt15regex_constantsL17format_first_onlyE:
	.long	1024
	.align 4
	.type	_ZNSt15regex_constantsL13error_collateE, @object
	.size	_ZNSt15regex_constantsL13error_collateE, 4
_ZNSt15regex_constantsL13error_collateE:
	.zero	4
	.align 4
	.type	_ZNSt15regex_constantsL11error_ctypeE, @object
	.size	_ZNSt15regex_constantsL11error_ctypeE, 4
_ZNSt15regex_constantsL11error_ctypeE:
	.long	1
	.align 4
	.type	_ZNSt15regex_constantsL12error_escapeE, @object
	.size	_ZNSt15regex_constantsL12error_escapeE, 4
_ZNSt15regex_constantsL12error_escapeE:
	.long	2
	.align 4
	.type	_ZNSt15regex_constantsL13error_backrefE, @object
	.size	_ZNSt15regex_constantsL13error_backrefE, 4
_ZNSt15regex_constantsL13error_backrefE:
	.long	3
	.align 4
	.type	_ZNSt15regex_constantsL11error_brackE, @object
	.size	_ZNSt15regex_constantsL11error_brackE, 4
_ZNSt15regex_constantsL11error_brackE:
	.long	4
	.align 4
	.type	_ZNSt15regex_constantsL11error_parenE, @object
	.size	_ZNSt15regex_constantsL11error_parenE, 4
_ZNSt15regex_constantsL11error_parenE:
	.long	5
	.align 4
	.type	_ZNSt15regex_constantsL11error_braceE, @object
	.size	_ZNSt15regex_constantsL11error_braceE, 4
_ZNSt15regex_constantsL11error_braceE:
	.long	6
	.align 4
	.type	_ZNSt15regex_constantsL14error_badbraceE, @object
	.size	_ZNSt15regex_constantsL14error_badbraceE, 4
_ZNSt15regex_constantsL14error_badbraceE:
	.long	7
	.align 4
	.type	_ZNSt15regex_constantsL11error_rangeE, @object
	.size	_ZNSt15regex_constantsL11error_rangeE, 4
_ZNSt15regex_constantsL11error_rangeE:
	.long	8
	.align 4
	.type	_ZNSt15regex_constantsL11error_spaceE, @object
	.size	_ZNSt15regex_constantsL11error_spaceE, 4
_ZNSt15regex_constantsL11error_spaceE:
	.long	9
	.align 4
	.type	_ZNSt15regex_constantsL15error_badrepeatE, @object
	.size	_ZNSt15regex_constantsL15error_badrepeatE, 4
_ZNSt15regex_constantsL15error_badrepeatE:
	.long	10
	.align 4
	.type	_ZNSt15regex_constantsL16error_complexityE, @object
	.size	_ZNSt15regex_constantsL16error_complexityE, 4
_ZNSt15regex_constantsL16error_complexityE:
	.long	11
	.align 4
	.type	_ZNSt15regex_constantsL11error_stackE, @object
	.size	_ZNSt15regex_constantsL11error_stackE, 4
_ZNSt15regex_constantsL11error_stackE:
	.long	12
	.align 8
	.type	_ZNSt8__detailL19_S_invalid_state_idE, @object
	.size	_ZNSt8__detailL19_S_invalid_state_idE, 8
_ZNSt8__detailL19_S_invalid_state_idE:
	.quad	-1
	.section	.text._ZSt3minImERKT_S2_S2_,"axG",@progbits,_ZSt3minImERKT_S2_S2_,comdat
	.weak	_ZSt3minImERKT_S2_S2_
	.type	_ZSt3minImERKT_S2_S2_, @function
_ZSt3minImERKT_S2_S2_:
.LFB7757:
	.cfi_startproc
	pushq	%rbp
	.cfi_def_cfa_offset 16
	.cfi_offset 6, -16
	movq	%rsp, %rbp
	.cfi_def_cfa_register 6
	movq	%rdi, -8(%rbp)
	movq	%rsi, -16(%rbp)
	movq	-16(%rbp), %rax
	movq	(%rax), %rdx
	movq	-8(%rbp), %rax
	movq	(%rax), %rax
	cmpq	%rax, %rdx
	jnb	.L17
	movq	-16(%rbp), %rax
	jmp	.L18
.L17:
	movq	-8(%rbp), %rax
.L18:
	popq	%rbp
	.cfi_def_cfa 7, 8
	ret
	.cfi_endproc
.LFE7757:
	.size	_ZSt3minImERKT_S2_S2_, .-_ZSt3minImERKT_S2_S2_
	.globl	_Z3adjB5cxx11
	.bss
	.align 8
	.type	_Z3adjB5cxx11, @object
	.size	_Z3adjB5cxx11, 8
_Z3adjB5cxx11:
	.zero	8
	.text
	.globl	_Z7addEdgeii
	.type	_Z7addEdgeii, @function
_Z7addEdgeii:
.LFB8284:
	.cfi_startproc
	pushq	%rbp
	.cfi_def_cfa_offset 16
	.cfi_offset 6, -16
	movq	%rsp, %rbp
	.cfi_def_cfa_register 6
	subq	$16, %rsp
	movl	%edi, -4(%rbp)
	movl	%esi, -8(%rbp)
	movq	_Z3adjB5cxx11(%rip), %rcx
	movl	-4(%rbp), %eax
	movslq	%eax, %rdx
	movq	%rdx, %rax
	addq	%rax, %rax
	addq	%rdx, %rax
	salq	$3, %rax
	leaq	(%rcx,%rax), %rdx
	leaq	-8(%rbp), %rax
	movq	%rax, %rsi
	movq	%rdx, %rdi
	call	_ZNSt7__cxx114listIiSaIiEE9push_backERKi
	movq	_Z3adjB5cxx11(%rip), %rcx
	movl	-8(%rbp), %eax
	movslq	%eax, %rdx
	movq	%rdx, %rax
	addq	%rax, %rax
	addq	%rdx, %rax
	salq	$3, %rax
	leaq	(%rcx,%rax), %rdx
	leaq	-4(%rbp), %rax
	movq	%rax, %rsi
	movq	%rdx, %rdi
	call	_ZNSt7__cxx114listIiSaIiEE9push_backERKi
	nop
	leave
	.cfi_def_cfa 7, 8
	ret
	.cfi_endproc
.LFE8284:
	.size	_Z7addEdgeii, .-_Z7addEdgeii
	.section	.text._ZNSt5queueIiSt5dequeIiSaIiEEED2Ev,"axG",@progbits,_ZNSt5queueIiSt5dequeIiSaIiEEED5Ev,comdat
	.align 2
	.weak	_ZNSt5queueIiSt5dequeIiSaIiEEED2Ev
	.type	_ZNSt5queueIiSt5dequeIiSaIiEEED2Ev, @function
_ZNSt5queueIiSt5dequeIiSaIiEEED2Ev:
.LFB8287:
	.cfi_startproc
	pushq	%rbp
	.cfi_def_cfa_offset 16
	.cfi_offset 6, -16
	movq	%rsp, %rbp
	.cfi_def_cfa_register 6
	subq	$16, %rsp
	movq	%rdi, -8(%rbp)
	movq	-8(%rbp), %rax
	movq	%rax, %rdi
	call	_ZNSt5dequeIiSaIiEED1Ev
	nop
	leave
	.cfi_def_cfa 7, 8
	ret
	.cfi_endproc
.LFE8287:
	.size	_ZNSt5queueIiSt5dequeIiSaIiEEED2Ev, .-_ZNSt5queueIiSt5dequeIiSaIiEEED2Ev
	.weak	_ZNSt5queueIiSt5dequeIiSaIiEEED1Ev
	.set	_ZNSt5queueIiSt5dequeIiSaIiEEED1Ev,_ZNSt5queueIiSt5dequeIiSaIiEEED2Ev
	.text
	.globl	_Z3BFSiPiiS_
	.type	_Z3BFSiPiiS_, @function
_Z3BFSiPiiS_:
.LFB8285:
	.cfi_startproc
	.cfi_personality 0x9b,DW.ref.__gxx_personality_v0
	.cfi_lsda 0x1b,.LLSDA8285
	pushq	%rbp
	.cfi_def_cfa_offset 16
	.cfi_offset 6, -16
	movq	%rsp, %rbp
	.cfi_def_cfa_register 6
	pushq	%r15
	pushq	%r14
	pushq	%r12
	pushq	%rbx
	subq	$176, %rsp
	.cfi_offset 15, -24
	.cfi_offset 14, -32
	.cfi_offset 12, -40
	.cfi_offset 3, -48
	movl	%edi, -164(%rbp)
	movq	%rsi, -176(%rbp)
	movl	%edx, -168(%rbp)
	movq	%rcx, -184(%rbp)
	movq	%rsp, %rax
	movq	%rax, %r12
	leaq	-144(%rbp), %rax
	movq	%rax, %rdi
.LEHB0:
	call	_ZNSt5queueIiSt5dequeIiSaIiEEEC1IS2_vEEv
.LEHE0:
	movl	-168(%rbp), %eax
	cltq
	leaq	-1(%rax), %rcx
	movq	%rcx, -40(%rbp)
	movq	%rcx, %rax
	addq	$1, %rax
	movq	%rax, -208(%rbp)
	movq	$0, -200(%rbp)
	movq	%rcx, %rax
	addq	$1, %rax
	movq	%rax, %r14
	movl	$0, %r15d
	movq	%rcx, %rax
	leaq	1(%rax), %rdx
	movl	$16, %eax
	subq	$1, %rax
	addq	%rdx, %rax
	movl	$16, %ebx
	movl	$0, %edx
	divq	%rbx
	imulq	$16, %rax, %rax
	subq	%rax, %rsp
	movq	%rsp, %rax
	addq	$0, %rax
	movq	%rax, -48(%rbp)
	movq	%rcx, %rax
	leaq	1(%rax), %rdx
	movq	-48(%rbp), %rax
	movl	$0, %esi
	movq	%rax, %rdi
	call	memset@PLT
	leaq	-164(%rbp), %rdx
	leaq	-144(%rbp), %rax
	movq	%rdx, %rsi
	movq	%rax, %rdi
.LEHB1:
	call	_ZNSt5queueIiSt5dequeIiSaIiEEE4pushERKi
	movl	-164(%rbp), %eax
	cltq
	leaq	0(,%rax,4), %rdx
	movq	-176(%rbp), %rax
	addq	%rdx, %rax
	movl	$0, (%rax)
	movl	-164(%rbp), %eax
	cltq
	leaq	0(,%rax,4), %rdx
	movq	-184(%rbp), %rax
	addq	%rax, %rdx
	movl	-164(%rbp), %eax
	movl	%eax, (%rdx)
	movl	-164(%rbp), %eax
	movq	-48(%rbp), %rdx
	cltq
	movb	$1, (%rdx,%rax)
.L26:
	leaq	-144(%rbp), %rax
	movq	%rax, %rdi
	call	_ZNKSt5queueIiSt5dequeIiSaIiEEE5emptyEv
	xorl	$1, %eax
	testb	%al, %al
	je	.L22
	leaq	-144(%rbp), %rax
	movq	%rax, %rdi
	call	_ZNSt5queueIiSt5dequeIiSaIiEEE5frontEv
	movl	(%rax), %eax
	movl	%eax, -52(%rbp)
	leaq	-144(%rbp), %rax
	movq	%rax, %rdi
	call	_ZNSt5queueIiSt5dequeIiSaIiEEE3popEv
	movq	_Z3adjB5cxx11(%rip), %rcx
	movl	-52(%rbp), %eax
	movslq	%eax, %rdx
	movq	%rdx, %rax
	addq	%rax, %rax
	addq	%rdx, %rax
	salq	$3, %rax
	addq	%rcx, %rax
	movq	%rax, %rdi
	call	_ZNSt7__cxx114listIiSaIiEE5beginEv
	movq	%rax, -152(%rbp)
.L25:
	movq	_Z3adjB5cxx11(%rip), %rcx
	movl	-52(%rbp), %eax
	movslq	%eax, %rdx
	movq	%rdx, %rax
	addq	%rax, %rax
	addq	%rdx, %rax
	salq	$3, %rax
	addq	%rcx, %rax
	movq	%rax, %rdi
	call	_ZNSt7__cxx114listIiSaIiEE3endEv
	movq	%rax, -64(%rbp)
	leaq	-64(%rbp), %rdx
	leaq	-152(%rbp), %rax
	movq	%rdx, %rsi
	movq	%rax, %rdi
	call	_ZStneRKSt14_List_iteratorIiES2_
	testb	%al, %al
	je	.L26
	leaq	-152(%rbp), %rax
	movq	%rax, %rdi
	call	_ZNKSt14_List_iteratorIiEdeEv
	movl	(%rax), %eax
	movq	-48(%rbp), %rdx
	cltq
	movzbl	(%rdx,%rax), %eax
	movzbl	%al, %eax
	testl	%eax, %eax
	sete	%al
	testb	%al, %al
	je	.L24
	movl	-52(%rbp), %eax
	cltq
	leaq	0(,%rax,4), %rdx
	movq	-176(%rbp), %rax
	addq	%rdx, %rax
	movl	(%rax), %ebx
	leaq	-152(%rbp), %rax
	movq	%rax, %rdi
	call	_ZNKSt14_List_iteratorIiEdeEv
	movl	(%rax), %eax
	cltq
	leaq	0(,%rax,4), %rdx
	movq	-176(%rbp), %rax
	addq	%rdx, %rax
	leal	1(%rbx), %edx
	movl	%edx, (%rax)
	leaq	-152(%rbp), %rax
	movq	%rax, %rdi
	call	_ZNKSt14_List_iteratorIiEdeEv
	movq	%rax, %rdx
	leaq	-144(%rbp), %rax
	movq	%rdx, %rsi
	movq	%rax, %rdi
	call	_ZNSt5queueIiSt5dequeIiSaIiEEE4pushERKi
.LEHE1:
	leaq	-152(%rbp), %rax
	movq	%rax, %rdi
	call	_ZNKSt14_List_iteratorIiEdeEv
	movl	(%rax), %eax
	movq	-48(%rbp), %rdx
	cltq
	movb	$1, (%rdx,%rax)
	leaq	-152(%rbp), %rax
	movq	%rax, %rdi
	call	_ZNKSt14_List_iteratorIiEdeEv
	movl	(%rax), %eax
	cltq
	leaq	0(,%rax,4), %rdx
	movq	-184(%rbp), %rax
	addq	%rax, %rdx
	movl	-52(%rbp), %eax
	movl	%eax, (%rdx)
.L24:
	leaq	-152(%rbp), %rax
	movq	%rax, %rdi
	call	_ZNSt14_List_iteratorIiEppEv
	jmp	.L25
.L22:
	leaq	-144(%rbp), %rax
	movq	%rax, %rdi
	call	_ZNSt5queueIiSt5dequeIiSaIiEEED1Ev
	movq	%r12, %rsp
	jmp	.L29
.L28:
	movq	%rax, %rbx
	leaq	-144(%rbp), %rax
	movq	%rax, %rdi
	call	_ZNSt5queueIiSt5dequeIiSaIiEEED1Ev
	movq	%rbx, %rax
	movq	%rax, %rdi
.LEHB2:
	call	_Unwind_Resume@PLT
.LEHE2:
.L29:
	leaq	-32(%rbp), %rsp
	popq	%rbx
	popq	%r12
	popq	%r14
	popq	%r15
	popq	%rbp
	.cfi_def_cfa 7, 8
	ret
	.cfi_endproc
.LFE8285:
	.globl	__gxx_personality_v0
	.section	.gcc_except_table,"a",@progbits
.LLSDA8285:
	.byte	0xff
	.byte	0xff
	.byte	0x1
	.uleb128 .LLSDACSE8285-.LLSDACSB8285
.LLSDACSB8285:
	.uleb128 .LEHB0-.LFB8285
	.uleb128 .LEHE0-.LEHB0
	.uleb128 0
	.uleb128 0
	.uleb128 .LEHB1-.LFB8285
	.uleb128 .LEHE1-.LEHB1
	.uleb128 .L28-.LFB8285
	.uleb128 0
	.uleb128 .LEHB2-.LFB8285
	.uleb128 .LEHE2-.LEHB2
	.uleb128 0
	.uleb128 0
.LLSDACSE8285:
	.text
	.size	_Z3BFSiPiiS_, .-_Z3BFSiPiiS_
	.section	.text._ZNSt7__cxx1110_List_baseIiSaIiEEC2Ev,"axG",@progbits,_ZNSt7__cxx1110_List_baseIiSaIiEEC5Ev,comdat
	.align 2
	.weak	_ZNSt7__cxx1110_List_baseIiSaIiEEC2Ev
	.type	_ZNSt7__cxx1110_List_baseIiSaIiEEC2Ev, @function
_ZNSt7__cxx1110_List_baseIiSaIiEEC2Ev:
.LFB8295:
	.cfi_startproc
	pushq	%rbp
	.cfi_def_cfa_offset 16
	.cfi_offset 6, -16
	movq	%rsp, %rbp
	.cfi_def_cfa_register 6
	subq	$16, %rsp
	movq	%rdi, -8(%rbp)
	movq	-8(%rbp), %rax
	movq	%rax, %rdi
	call	_ZNSt7__cxx1110_List_baseIiSaIiEE10_List_implC1Ev
	nop
	leave
	.cfi_def_cfa 7, 8
	ret
	.cfi_endproc
.LFE8295:
	.size	_ZNSt7__cxx1110_List_baseIiSaIiEEC2Ev, .-_ZNSt7__cxx1110_List_baseIiSaIiEEC2Ev
	.weak	_ZNSt7__cxx1110_List_baseIiSaIiEEC1Ev
	.set	_ZNSt7__cxx1110_List_baseIiSaIiEEC1Ev,_ZNSt7__cxx1110_List_baseIiSaIiEEC2Ev
	.section	.text._ZNSt7__cxx114listIiSaIiEEC2Ev,"axG",@progbits,_ZNSt7__cxx114listIiSaIiEEC5Ev,comdat
	.align 2
	.weak	_ZNSt7__cxx114listIiSaIiEEC2Ev
	.type	_ZNSt7__cxx114listIiSaIiEEC2Ev, @function
_ZNSt7__cxx114listIiSaIiEEC2Ev:
.LFB8297:
	.cfi_startproc
	pushq	%rbp
	.cfi_def_cfa_offset 16
	.cfi_offset 6, -16
	movq	%rsp, %rbp
	.cfi_def_cfa_register 6
	subq	$16, %rsp
	movq	%rdi, -8(%rbp)
	movq	-8(%rbp), %rax
	movq	%rax, %rdi
	call	_ZNSt7__cxx1110_List_baseIiSaIiEEC2Ev
	nop
	leave
	.cfi_def_cfa 7, 8
	ret
	.cfi_endproc
.LFE8297:
	.size	_ZNSt7__cxx114listIiSaIiEEC2Ev, .-_ZNSt7__cxx114listIiSaIiEEC2Ev
	.weak	_ZNSt7__cxx114listIiSaIiEEC1Ev
	.set	_ZNSt7__cxx114listIiSaIiEEC1Ev,_ZNSt7__cxx114listIiSaIiEEC2Ev
	.section	.text._ZNSt12_Vector_baseISt4pairIiiESaIS1_EE12_Vector_implD2Ev,"axG",@progbits,_ZNSt12_Vector_baseISt4pairIiiESaIS1_EE12_Vector_implD5Ev,comdat
	.align 2
	.weak	_ZNSt12_Vector_baseISt4pairIiiESaIS1_EE12_Vector_implD2Ev
	.type	_ZNSt12_Vector_baseISt4pairIiiESaIS1_EE12_Vector_implD2Ev, @function
_ZNSt12_Vector_baseISt4pairIiiESaIS1_EE12_Vector_implD2Ev:
.LFB8305:
	.cfi_startproc
	pushq	%rbp
	.cfi_def_cfa_offset 16
	.cfi_offset 6, -16
	movq	%rsp, %rbp
	.cfi_def_cfa_register 6
	subq	$16, %rsp
	movq	%rdi, -8(%rbp)
	movq	-8(%rbp), %rax
	movq	%rax, %rdi
	call	_ZNSaISt4pairIiiEED2Ev
	nop
	leave
	.cfi_def_cfa 7, 8
	ret
	.cfi_endproc
.LFE8305:
	.size	_ZNSt12_Vector_baseISt4pairIiiESaIS1_EE12_Vector_implD2Ev, .-_ZNSt12_Vector_baseISt4pairIiiESaIS1_EE12_Vector_implD2Ev
	.weak	_ZNSt12_Vector_baseISt4pairIiiESaIS1_EE12_Vector_implD1Ev
	.set	_ZNSt12_Vector_baseISt4pairIiiESaIS1_EE12_Vector_implD1Ev,_ZNSt12_Vector_baseISt4pairIiiESaIS1_EE12_Vector_implD2Ev
	.section	.text._ZNSt12_Vector_baseISt4pairIiiESaIS1_EEC2Ev,"axG",@progbits,_ZNSt12_Vector_baseISt4pairIiiESaIS1_EEC5Ev,comdat
	.align 2
	.weak	_ZNSt12_Vector_baseISt4pairIiiESaIS1_EEC2Ev
	.type	_ZNSt12_Vector_baseISt4pairIiiESaIS1_EEC2Ev, @function
_ZNSt12_Vector_baseISt4pairIiiESaIS1_EEC2Ev:
.LFB8307:
	.cfi_startproc
	pushq	%rbp
	.cfi_def_cfa_offset 16
	.cfi_offset 6, -16
	movq	%rsp, %rbp
	.cfi_def_cfa_register 6
	subq	$16, %rsp
	movq	%rdi, -8(%rbp)
	movq	-8(%rbp), %rax
	movq	%rax, %rdi
	call	_ZNSt12_Vector_baseISt4pairIiiESaIS1_EE12_Vector_implC1Ev
	nop
	leave
	.cfi_def_cfa 7, 8
	ret
	.cfi_endproc
.LFE8307:
	.size	_ZNSt12_Vector_baseISt4pairIiiESaIS1_EEC2Ev, .-_ZNSt12_Vector_baseISt4pairIiiESaIS1_EEC2Ev
	.weak	_ZNSt12_Vector_baseISt4pairIiiESaIS1_EEC1Ev
	.set	_ZNSt12_Vector_baseISt4pairIiiESaIS1_EEC1Ev,_ZNSt12_Vector_baseISt4pairIiiESaIS1_EEC2Ev
	.section	.text._ZNSt6vectorISt4pairIiiESaIS1_EEC2Ev,"axG",@progbits,_ZNSt6vectorISt4pairIiiESaIS1_EEC5Ev,comdat
	.align 2
	.weak	_ZNSt6vectorISt4pairIiiESaIS1_EEC2Ev
	.type	_ZNSt6vectorISt4pairIiiESaIS1_EEC2Ev, @function
_ZNSt6vectorISt4pairIiiESaIS1_EEC2Ev:
.LFB8309:
	.cfi_startproc
	pushq	%rbp
	.cfi_def_cfa_offset 16
	.cfi_offset 6, -16
	movq	%rsp, %rbp
	.cfi_def_cfa_register 6
	subq	$16, %rsp
	movq	%rdi, -8(%rbp)
	movq	-8(%rbp), %rax
	movq	%rax, %rdi
	call	_ZNSt12_Vector_baseISt4pairIiiESaIS1_EEC2Ev
	nop
	leave
	.cfi_def_cfa 7, 8
	ret
	.cfi_endproc
.LFE8309:
	.size	_ZNSt6vectorISt4pairIiiESaIS1_EEC2Ev, .-_ZNSt6vectorISt4pairIiiESaIS1_EEC2Ev
	.weak	_ZNSt6vectorISt4pairIiiESaIS1_EEC1Ev
	.set	_ZNSt6vectorISt4pairIiiESaIS1_EEC1Ev,_ZNSt6vectorISt4pairIiiESaIS1_EEC2Ev
	.section	.rodata
.LC0:
	.string	"%d%d"
.LC1:
	.string	"%d%d%d"
.LC2:
	.string	"%d\n"
	.text
	.globl	main
	.type	main, @function
main:
.LFB8289:
	.cfi_startproc
	.cfi_personality 0x9b,DW.ref.__gxx_personality_v0
	.cfi_lsda 0x1b,.LLSDA8289
	pushq	%rbp
	.cfi_def_cfa_offset 16
	.cfi_offset 6, -16
	movq	%rsp, %rbp
	.cfi_def_cfa_register 6
	pushq	%r13
	pushq	%r12
	pushq	%rbx
	subq	$152, %rsp
	.cfi_offset 13, -24
	.cfi_offset 12, -32
	.cfi_offset 3, -40
	leaq	-96(%rbp), %rdx
	leaq	-92(%rbp), %rax
	movq	%rax, %rsi
	leaq	.LC0(%rip), %rdi
	movl	$0, %eax
.LEHB3:
	call	__isoc99_scanf@PLT
	movl	-92(%rbp), %eax
	movslq	%eax, %rbx
	movabsq	$384307168202282325, %rax
	cmpq	%rax, %rbx
	ja	.L36
	movq	%rbx, %rax
	addq	%rax, %rax
	addq	%rbx, %rax
	salq	$3, %rax
	addq	$8, %rax
	jmp	.L37
.L36:
	movq	$-1, %rax
.L37:
	movq	%rax, %rdi
	call	_Znam@PLT
	movq	%rax, %r12
	movq	%rbx, (%r12)
	leaq	8(%r12), %rax
	leaq	-1(%rbx), %rdx
	movq	%rdx, %rbx
	movq	%rax, %r13
.L39:
	testq	%rbx, %rbx
	js	.L38
	movq	%r13, %rdi
	call	_ZNSt7__cxx114listIiSaIiEEC1Ev
	addq	$24, %r13
	subq	$1, %rbx
	jmp	.L39
.L38:
	leaq	8(%r12), %rax
	movq	%rax, _Z3adjB5cxx11(%rip)
	movl	-92(%rbp), %eax
	cltq
	movabsq	$2305843009213693950, %rdx
	cmpq	%rdx, %rax
	ja	.L40
	salq	$2, %rax
	movq	%rax, %rdi
	call	_Znam@PLT
	movq	%rax, -48(%rbp)
	movl	-92(%rbp), %eax
	cltq
	movabsq	$2305843009213693950, %rdx
	cmpq	%rdx, %rax
	ja	.L42
	jmp	.L59
.L40:
	call	__cxa_throw_bad_array_new_length@PLT
.L59:
	salq	$2, %rax
	movq	%rax, %rdi
	call	_Znam@PLT
	movq	%rax, -56(%rbp)
	movl	-92(%rbp), %eax
	cltq
	movabsq	$2305843009213693950, %rdx
	cmpq	%rdx, %rax
	ja	.L44
	jmp	.L60
.L42:
	call	__cxa_throw_bad_array_new_length@PLT
.L60:
	salq	$2, %rax
	movq	%rax, %rdi
	call	_Znam@PLT
	movq	%rax, -64(%rbp)
	jmp	.L47
.L44:
	call	__cxa_throw_bad_array_new_length@PLT
.L47:
	movl	-96(%rbp), %eax
	leal	-1(%rax), %edx
	movl	%edx, -96(%rbp)
	testl	%eax, %eax
	setne	%al
	testb	%al, %al
	je	.L46
	leaq	-156(%rbp), %rdx
	leaq	-152(%rbp), %rax
	movq	%rax, %rsi
	leaq	.LC0(%rip), %rdi
	movl	$0, %eax
	call	__isoc99_scanf@PLT
	movl	-156(%rbp), %eax
	leal	-1(%rax), %edx
	movl	-152(%rbp), %eax
	subl	$1, %eax
	movl	%edx, %esi
	movl	%eax, %edi
	call	_Z7addEdgeii
	jmp	.L47
.L46:
	leaq	-108(%rbp), %rcx
	leaq	-104(%rbp), %rdx
	leaq	-100(%rbp), %rax
	movq	%rax, %rsi
	leaq	.LC1(%rip), %rdi
	movl	$0, %eax
	call	__isoc99_scanf@PLT
	movl	-92(%rbp), %edx
	movl	-108(%rbp), %eax
	leal	-1(%rax), %edi
	movq	-64(%rbp), %rcx
	movq	-48(%rbp), %rax
	movq	%rax, %rsi
	call	_Z3BFSiPiiS_
.LEHE3:
	leaq	-144(%rbp), %rax
	movq	%rax, %rdi
	call	_ZNSt6vectorISt4pairIiiESaIS1_EEC1Ev
	movl	$0, -36(%rbp)
.L53:
	movl	-92(%rbp), %eax
	cmpl	%eax, -36(%rbp)
	jge	.L48
	movq	_Z3adjB5cxx11(%rip), %rcx
	movl	-36(%rbp), %eax
	movslq	%eax, %rdx
	movq	%rdx, %rax
	addq	%rax, %rax
	addq	%rdx, %rax
	salq	$3, %rax
	addq	%rcx, %rax
	movq	%rax, %rdi
	call	_ZNSt7__cxx114listIiSaIiEE5beginEv
	movq	%rax, -168(%rbp)
.L50:
	movq	_Z3adjB5cxx11(%rip), %rcx
	movl	-36(%rbp), %eax
	movslq	%eax, %rdx
	movq	%rdx, %rax
	addq	%rax, %rax
	addq	%rdx, %rax
	salq	$3, %rax
	addq	%rcx, %rax
	movq	%rax, %rdi
	call	_ZNSt7__cxx114listIiSaIiEE3endEv
	movq	%rax, -88(%rbp)
	leaq	-88(%rbp), %rdx
	leaq	-168(%rbp), %rax
	movq	%rdx, %rsi
	movq	%rax, %rdi
	call	_ZStneRKSt14_List_iteratorIiES2_
	testb	%al, %al
	je	.L49
	leaq	-168(%rbp), %rax
	movq	%rax, %rdi
	call	_ZNKSt14_List_iteratorIiEdeEv
	movq	%rax, %rbx
	leaq	-168(%rbp), %rax
	movq	%rax, %rdi
	call	_ZNKSt14_List_iteratorIiEdeEv
	movl	(%rax), %eax
	cltq
	leaq	0(,%rax,4), %rdx
	movq	-48(%rbp), %rax
	addq	%rdx, %rax
	movq	%rbx, %rsi
	movq	%rax, %rdi
.LEHB4:
	call	_ZSt9make_pairIRiS0_ESt4pairINSt17__decay_and_stripIT_E6__typeENS2_IT0_E6__typeEEOS3_OS6_
	movq	%rax, -80(%rbp)
	leaq	-80(%rbp), %rdx
	leaq	-144(%rbp), %rax
	movq	%rdx, %rsi
	movq	%rax, %rdi
	call	_ZNSt6vectorISt4pairIiiESaIS1_EE9push_backEOS1_
	leaq	-168(%rbp), %rax
	movq	%rax, %rdi
	call	_ZNSt14_List_iteratorIiEppEv
	jmp	.L50
.L49:
	leaq	-144(%rbp), %rax
	movq	%rax, %rdi
	call	_ZNSt6vectorISt4pairIiiESaIS1_EE3endEv
	movq	%rax, %rbx
	leaq	-144(%rbp), %rax
	movq	%rax, %rdi
	call	_ZNSt6vectorISt4pairIiiESaIS1_EE5beginEv
	movq	%rbx, %rsi
	movq	%rax, %rdi
	call	_ZSt4sortIN9__gnu_cxx17__normal_iteratorIPSt4pairIiiESt6vectorIS3_SaIS3_EEEEEvT_S9_
	movq	_Z3adjB5cxx11(%rip), %rcx
	movl	-36(%rbp), %eax
	movslq	%eax, %rdx
	movq	%rdx, %rax
	addq	%rax, %rax
	addq	%rdx, %rax
	salq	$3, %rax
	addq	%rcx, %rax
	movq	%rax, %rdi
	call	_ZNSt7__cxx114listIiSaIiEE5clearEv
	leaq	-176(%rbp), %rax
	leaq	-144(%rbp), %rdx
	movq	%rdx, %rsi
	movq	%rax, %rdi
	call	_ZNSt6vectorISt4pairIiiESaIS1_EE6rbeginEv
.L52:
	leaq	-72(%rbp), %rax
	leaq	-144(%rbp), %rdx
	movq	%rdx, %rsi
	movq	%rax, %rdi
	call	_ZNSt6vectorISt4pairIiiESaIS1_EE4rendEv
	leaq	-72(%rbp), %rdx
	leaq	-176(%rbp), %rax
	movq	%rdx, %rsi
	movq	%rax, %rdi
	call	_ZStneIN9__gnu_cxx17__normal_iteratorIPSt4pairIiiESt6vectorIS3_SaIS3_EEEEEbRKSt16reverse_iteratorIT_ESD_
	testb	%al, %al
	je	.L51
	movq	_Z3adjB5cxx11(%rip), %rcx
	movl	-36(%rbp), %eax
	movslq	%eax, %rdx
	movq	%rdx, %rax
	addq	%rax, %rax
	addq	%rdx, %rax
	salq	$3, %rax
	leaq	(%rcx,%rax), %rbx
	leaq	-176(%rbp), %rax
	movq	%rax, %rdi
	call	_ZNKSt16reverse_iteratorIN9__gnu_cxx17__normal_iteratorIPSt4pairIiiESt6vectorIS3_SaIS3_EEEEEdeEv
	addq	$4, %rax
	movq	%rax, %rsi
	movq	%rbx, %rdi
	call	_ZNSt7__cxx114listIiSaIiEE9push_backERKi
	leaq	-176(%rbp), %rax
	movq	%rax, %rdi
	call	_ZNSt16reverse_iteratorIN9__gnu_cxx17__normal_iteratorIPSt4pairIiiESt6vectorIS3_SaIS3_EEEEEppEv
	jmp	.L52
.L51:
	leaq	-144(%rbp), %rax
	movq	%rax, %rdi
	call	_ZNSt6vectorISt4pairIiiESaIS1_EE5clearEv
	addl	$1, -36(%rbp)
	jmp	.L53
.L48:
	movl	-92(%rbp), %edx
	movl	-100(%rbp), %eax
	leal	-1(%rax), %edi
	movq	-64(%rbp), %rcx
	movq	-56(%rbp), %rax
	movq	%rax, %rsi
	call	_Z3BFSiPiiS_
	movl	-100(%rbp), %eax
	cltq
	salq	$2, %rax
	leaq	-4(%rax), %rdx
	movq	-48(%rbp), %rax
	addq	%rdx, %rax
	movl	(%rax), %eax
	movl	%eax, -148(%rbp)
	movl	-104(%rbp), %eax
	subl	$1, %eax
	movl	%eax, -40(%rbp)
.L55:
	movl	-40(%rbp), %eax
	cltq
	leaq	0(,%rax,4), %rdx
	movq	-64(%rbp), %rax
	addq	%rdx, %rax
	movl	(%rax), %eax
	cmpl	%eax, -40(%rbp)
	je	.L54
	movl	-40(%rbp), %eax
	cltq
	leaq	0(,%rax,4), %rdx
	movq	-48(%rbp), %rax
	addq	%rax, %rdx
	leaq	-148(%rbp), %rax
	movq	%rdx, %rsi
	movq	%rax, %rdi
	call	_ZSt3minIiERKT_S2_S2_
	movl	(%rax), %eax
	movl	%eax, -148(%rbp)
	movl	-40(%rbp), %eax
	cltq
	leaq	0(,%rax,4), %rdx
	movq	-64(%rbp), %rax
	addq	%rdx, %rax
	movl	(%rax), %eax
	movl	%eax, -40(%rbp)
	jmp	.L55
.L54:
	movl	-148(%rbp), %eax
	movl	%eax, %esi
	leaq	.LC2(%rip), %rdi
	movl	$0, %eax
	call	printf@PLT
.LEHE4:
	movl	$0, %ebx
	leaq	-144(%rbp), %rax
	movq	%rax, %rdi
	call	_ZNSt6vectorISt4pairIiiESaIS1_EED1Ev
	movl	%ebx, %eax
	jmp	.L61
.L58:
	movq	%rax, %rbx
	leaq	-144(%rbp), %rax
	movq	%rax, %rdi
	call	_ZNSt6vectorISt4pairIiiESaIS1_EED1Ev
	movq	%rbx, %rax
	movq	%rax, %rdi
.LEHB5:
	call	_Unwind_Resume@PLT
.LEHE5:
.L61:
	addq	$152, %rsp
	popq	%rbx
	popq	%r12
	popq	%r13
	popq	%rbp
	.cfi_def_cfa 7, 8
	ret
	.cfi_endproc
.LFE8289:
	.section	.gcc_except_table
.LLSDA8289:
	.byte	0xff
	.byte	0xff
	.byte	0x1
	.uleb128 .LLSDACSE8289-.LLSDACSB8289
.LLSDACSB8289:
	.uleb128 .LEHB3-.LFB8289
	.uleb128 .LEHE3-.LEHB3
	.uleb128 0
	.uleb128 0
	.uleb128 .LEHB4-.LFB8289
	.uleb128 .LEHE4-.LEHB4
	.uleb128 .L58-.LFB8289
	.uleb128 0
	.uleb128 .LEHB5-.LFB8289
	.uleb128 .LEHE5-.LEHB5
	.uleb128 0
	.uleb128 0
.LLSDACSE8289:
	.text
	.size	main, .-main
	.section	.text._ZSt3maxImERKT_S2_S2_,"axG",@progbits,_ZSt3maxImERKT_S2_S2_,comdat
	.weak	_ZSt3maxImERKT_S2_S2_
	.type	_ZSt3maxImERKT_S2_S2_, @function
_ZSt3maxImERKT_S2_S2_:
.LFB8853:
	.cfi_startproc
	pushq	%rbp
	.cfi_def_cfa_offset 16
	.cfi_offset 6, -16
	movq	%rsp, %rbp
	.cfi_def_cfa_register 6
	movq	%rdi, -8(%rbp)
	movq	%rsi, -16(%rbp)
	movq	-8(%rbp), %rax
	movq	(%rax), %rdx
	movq	-16(%rbp), %rax
	movq	(%rax), %rax
	cmpq	%rax, %rdx
	jnb	.L63
	movq	-16(%rbp), %rax
	jmp	.L64
.L63:
	movq	-8(%rbp), %rax
.L64:
	popq	%rbp
	.cfi_def_cfa 7, 8
	ret
	.cfi_endproc
.LFE8853:
	.size	_ZSt3maxImERKT_S2_S2_, .-_ZSt3maxImERKT_S2_S2_
	.section	.text._ZSt7forwardIiEOT_RNSt16remove_referenceIS0_E4typeE,"axG",@progbits,_ZSt7forwardIiEOT_RNSt16remove_referenceIS0_E4typeE,comdat
	.weak	_ZSt7forwardIiEOT_RNSt16remove_referenceIS0_E4typeE
	.type	_ZSt7forwardIiEOT_RNSt16remove_referenceIS0_E4typeE, @function
_ZSt7forwardIiEOT_RNSt16remove_referenceIS0_E4typeE:
.LFB8877:
	.cfi_startproc
	pushq	%rbp
	.cfi_def_cfa_offset 16
	.cfi_offset 6, -16
	movq	%rsp, %rbp
	.cfi_def_cfa_register 6
	movq	%rdi, -8(%rbp)
	movq	-8(%rbp), %rax
	popq	%rbp
	.cfi_def_cfa 7, 8
	ret
	.cfi_endproc
.LFE8877:
	.size	_ZSt7forwardIiEOT_RNSt16remove_referenceIS0_E4typeE, .-_ZSt7forwardIiEOT_RNSt16remove_referenceIS0_E4typeE
	.section	.text._ZNSt7__cxx114listIiSaIiEE9push_backERKi,"axG",@progbits,_ZNSt7__cxx114listIiSaIiEE9push_backERKi,comdat
	.align 2
	.weak	_ZNSt7__cxx114listIiSaIiEE9push_backERKi
	.type	_ZNSt7__cxx114listIiSaIiEE9push_backERKi, @function
_ZNSt7__cxx114listIiSaIiEE9push_backERKi:
.LFB8880:
	.cfi_startproc
	pushq	%rbp
	.cfi_def_cfa_offset 16
	.cfi_offset 6, -16
	movq	%rsp, %rbp
	.cfi_def_cfa_register 6
	subq	$16, %rsp
	movq	%rdi, -8(%rbp)
	movq	%rsi, -16(%rbp)
	movq	-8(%rbp), %rax
	movq	%rax, %rdi
	call	_ZNSt7__cxx114listIiSaIiEE3endEv
	movq	%rax, %rcx
	movq	-16(%rbp), %rdx
	movq	-8(%rbp), %rax
	movq	%rcx, %rsi
	movq	%rax, %rdi
	call	_ZNSt7__cxx114listIiSaIiEE9_M_insertIJRKiEEEvSt14_List_iteratorIiEDpOT_
	nop
	leave
	.cfi_def_cfa 7, 8
	ret
	.cfi_endproc
.LFE8880:
	.size	_ZNSt7__cxx114listIiSaIiEE9push_backERKi, .-_ZNSt7__cxx114listIiSaIiEE9push_backERKi
	.section	.text._ZNSt5queueIiSt5dequeIiSaIiEEEC2IS2_vEEv,"axG",@progbits,_ZNSt5queueIiSt5dequeIiSaIiEEEC5IS2_vEEv,comdat
	.align 2
	.weak	_ZNSt5queueIiSt5dequeIiSaIiEEEC2IS2_vEEv
	.type	_ZNSt5queueIiSt5dequeIiSaIiEEEC2IS2_vEEv, @function
_ZNSt5queueIiSt5dequeIiSaIiEEEC2IS2_vEEv:
.LFB8882:
	.cfi_startproc
	pushq	%rbp
	.cfi_def_cfa_offset 16
	.cfi_offset 6, -16
	movq	%rsp, %rbp
	.cfi_def_cfa_register 6
	subq	$16, %rsp
	movq	%rdi, -8(%rbp)
	movq	-8(%rbp), %rax
	movq	%rax, %rdi
	call	_ZNSt5dequeIiSaIiEEC1Ev
	nop
	leave
	.cfi_def_cfa 7, 8
	ret
	.cfi_endproc
.LFE8882:
	.size	_ZNSt5queueIiSt5dequeIiSaIiEEEC2IS2_vEEv, .-_ZNSt5queueIiSt5dequeIiSaIiEEEC2IS2_vEEv
	.weak	_ZNSt5queueIiSt5dequeIiSaIiEEEC1IS2_vEEv
	.set	_ZNSt5queueIiSt5dequeIiSaIiEEEC1IS2_vEEv,_ZNSt5queueIiSt5dequeIiSaIiEEEC2IS2_vEEv
	.section	.text._ZNSt5dequeIiSaIiEED2Ev,"axG",@progbits,_ZNSt5dequeIiSaIiEED5Ev,comdat
	.align 2
	.weak	_ZNSt5dequeIiSaIiEED2Ev
	.type	_ZNSt5dequeIiSaIiEED2Ev, @function
_ZNSt5dequeIiSaIiEED2Ev:
.LFB8885:
	.cfi_startproc
	.cfi_personality 0x9b,DW.ref.__gxx_personality_v0
	.cfi_lsda 0x1b,.LLSDA8885
	pushq	%rbp
	.cfi_def_cfa_offset 16
	.cfi_offset 6, -16
	movq	%rsp, %rbp
	.cfi_def_cfa_register 6
	pushq	%rbx
	subq	$88, %rsp
	.cfi_offset 3, -24
	movq	%rdi, -88(%rbp)
	movq	-88(%rbp), %rax
	movq	%rax, %rdi
	call	_ZNSt11_Deque_baseIiSaIiEE19_M_get_Tp_allocatorEv
	movq	%rax, %rbx
	leaq	-80(%rbp), %rax
	movq	-88(%rbp), %rdx
	movq	%rdx, %rsi
	movq	%rax, %rdi
	call	_ZNSt5dequeIiSaIiEE3endEv
	leaq	-48(%rbp), %rax
	movq	-88(%rbp), %rdx
	movq	%rdx, %rsi
	movq	%rax, %rdi
	call	_ZNSt5dequeIiSaIiEE5beginEv
	movq	-88(%rbp), %rax
	pushq	-56(%rbp)
	pushq	-64(%rbp)
	pushq	-72(%rbp)
	pushq	-80(%rbp)
	pushq	-24(%rbp)
	pushq	-32(%rbp)
	pushq	-40(%rbp)
	pushq	-48(%rbp)
	movq	%rbx, %rsi
	movq	%rax, %rdi
	call	_ZNSt5dequeIiSaIiEE15_M_destroy_dataESt15_Deque_iteratorIiRiPiES5_RKS0_
	addq	$64, %rsp
	movq	-88(%rbp), %rax
	movq	%rax, %rdi
	call	_ZNSt11_Deque_baseIiSaIiEED2Ev
	nop
	movq	-8(%rbp), %rbx
	leave
	.cfi_def_cfa 7, 8
	ret
	.cfi_endproc
.LFE8885:
	.section	.gcc_except_table
.LLSDA8885:
	.byte	0xff
	.byte	0xff
	.byte	0x1
	.uleb128 .LLSDACSE8885-.LLSDACSB8885
.LLSDACSB8885:
.LLSDACSE8885:
	.section	.text._ZNSt5dequeIiSaIiEED2Ev,"axG",@progbits,_ZNSt5dequeIiSaIiEED5Ev,comdat
	.size	_ZNSt5dequeIiSaIiEED2Ev, .-_ZNSt5dequeIiSaIiEED2Ev
	.weak	_ZNSt5dequeIiSaIiEED1Ev
	.set	_ZNSt5dequeIiSaIiEED1Ev,_ZNSt5dequeIiSaIiEED2Ev
	.section	.text._ZNSt5queueIiSt5dequeIiSaIiEEE4pushERKi,"axG",@progbits,_ZNSt5queueIiSt5dequeIiSaIiEEE4pushERKi,comdat
	.align 2
	.weak	_ZNSt5queueIiSt5dequeIiSaIiEEE4pushERKi
	.type	_ZNSt5queueIiSt5dequeIiSaIiEEE4pushERKi, @function
_ZNSt5queueIiSt5dequeIiSaIiEEE4pushERKi:
.LFB8887:
	.cfi_startproc
	pushq	%rbp
	.cfi_def_cfa_offset 16
	.cfi_offset 6, -16
	movq	%rsp, %rbp
	.cfi_def_cfa_register 6
	subq	$16, %rsp
	movq	%rdi, -8(%rbp)
	movq	%rsi, -16(%rbp)
	movq	-8(%rbp), %rax
	movq	-16(%rbp), %rdx
	movq	%rdx, %rsi
	movq	%rax, %rdi
	call	_ZNSt5dequeIiSaIiEE9push_backERKi
	nop
	leave
	.cfi_def_cfa 7, 8
	ret
	.cfi_endproc
.LFE8887:
	.size	_ZNSt5queueIiSt5dequeIiSaIiEEE4pushERKi, .-_ZNSt5queueIiSt5dequeIiSaIiEEE4pushERKi
	.section	.text._ZNKSt5queueIiSt5dequeIiSaIiEEE5emptyEv,"axG",@progbits,_ZNKSt5queueIiSt5dequeIiSaIiEEE5emptyEv,comdat
	.align 2
	.weak	_ZNKSt5queueIiSt5dequeIiSaIiEEE5emptyEv
	.type	_ZNKSt5queueIiSt5dequeIiSaIiEEE5emptyEv, @function
_ZNKSt5queueIiSt5dequeIiSaIiEEE5emptyEv:
.LFB8888:
	.cfi_startproc
	pushq	%rbp
	.cfi_def_cfa_offset 16
	.cfi_offset 6, -16
	movq	%rsp, %rbp
	.cfi_def_cfa_register 6
	subq	$16, %rsp
	movq	%rdi, -8(%rbp)
	movq	-8(%rbp), %rax
	movq	%rax, %rdi
	call	_ZNKSt5dequeIiSaIiEE5emptyEv
	leave
	.cfi_def_cfa 7, 8
	ret
	.cfi_endproc
.LFE8888:
	.size	_ZNKSt5queueIiSt5dequeIiSaIiEEE5emptyEv, .-_ZNKSt5queueIiSt5dequeIiSaIiEEE5emptyEv
	.section	.text._ZNSt5queueIiSt5dequeIiSaIiEEE5frontEv,"axG",@progbits,_ZNSt5queueIiSt5dequeIiSaIiEEE5frontEv,comdat
	.align 2
	.weak	_ZNSt5queueIiSt5dequeIiSaIiEEE5frontEv
	.type	_ZNSt5queueIiSt5dequeIiSaIiEEE5frontEv, @function
_ZNSt5queueIiSt5dequeIiSaIiEEE5frontEv:
.LFB8889:
	.cfi_startproc
	pushq	%rbp
	.cfi_def_cfa_offset 16
	.cfi_offset 6, -16
	movq	%rsp, %rbp
	.cfi_def_cfa_register 6
	subq	$16, %rsp
	movq	%rdi, -8(%rbp)
	movq	-8(%rbp), %rax
	movq	%rax, %rdi
	call	_ZNSt5dequeIiSaIiEE5frontEv
	leave
	.cfi_def_cfa 7, 8
	ret
	.cfi_endproc
.LFE8889:
	.size	_ZNSt5queueIiSt5dequeIiSaIiEEE5frontEv, .-_ZNSt5queueIiSt5dequeIiSaIiEEE5frontEv
	.section	.text._ZNSt5queueIiSt5dequeIiSaIiEEE3popEv,"axG",@progbits,_ZNSt5queueIiSt5dequeIiSaIiEEE3popEv,comdat
	.align 2
	.weak	_ZNSt5queueIiSt5dequeIiSaIiEEE3popEv
	.type	_ZNSt5queueIiSt5dequeIiSaIiEEE3popEv, @function
_ZNSt5queueIiSt5dequeIiSaIiEEE3popEv:
.LFB8890:
	.cfi_startproc
	pushq	%rbp
	.cfi_def_cfa_offset 16
	.cfi_offset 6, -16
	movq	%rsp, %rbp
	.cfi_def_cfa_register 6
	subq	$16, %rsp
	movq	%rdi, -8(%rbp)
	movq	-8(%rbp), %rax
	movq	%rax, %rdi
	call	_ZNSt5dequeIiSaIiEE9pop_frontEv
	nop
	leave
	.cfi_def_cfa 7, 8
	ret
	.cfi_endproc
.LFE8890:
	.size	_ZNSt5queueIiSt5dequeIiSaIiEEE3popEv, .-_ZNSt5queueIiSt5dequeIiSaIiEEE3popEv
	.section	.text._ZNSt7__cxx114listIiSaIiEE5beginEv,"axG",@progbits,_ZNSt7__cxx114listIiSaIiEE5beginEv,comdat
	.align 2
	.weak	_ZNSt7__cxx114listIiSaIiEE5beginEv
	.type	_ZNSt7__cxx114listIiSaIiEE5beginEv, @function
_ZNSt7__cxx114listIiSaIiEE5beginEv:
.LFB8891:
	.cfi_startproc
	pushq	%rbp
	.cfi_def_cfa_offset 16
	.cfi_offset 6, -16
	movq	%rsp, %rbp
	.cfi_def_cfa_register 6
	subq	$32, %rsp
	movq	%rdi, -24(%rbp)
	movq	-24(%rbp), %rax
	movq	(%rax), %rdx
	leaq	-8(%rbp), %rax
	movq	%rdx, %rsi
	movq	%rax, %rdi
	call	_ZNSt14_List_iteratorIiEC1EPNSt8__detail15_List_node_baseE
	movq	-8(%rbp), %rax
	leave
	.cfi_def_cfa 7, 8
	ret
	.cfi_endproc
.LFE8891:
	.size	_ZNSt7__cxx114listIiSaIiEE5beginEv, .-_ZNSt7__cxx114listIiSaIiEE5beginEv
	.section	.text._ZNSt7__cxx114listIiSaIiEE3endEv,"axG",@progbits,_ZNSt7__cxx114listIiSaIiEE3endEv,comdat
	.align 2
	.weak	_ZNSt7__cxx114listIiSaIiEE3endEv
	.type	_ZNSt7__cxx114listIiSaIiEE3endEv, @function
_ZNSt7__cxx114listIiSaIiEE3endEv:
.LFB8892:
	.cfi_startproc
	pushq	%rbp
	.cfi_def_cfa_offset 16
	.cfi_offset 6, -16
	movq	%rsp, %rbp
	.cfi_def_cfa_register 6
	subq	$32, %rsp
	movq	%rdi, -24(%rbp)
	movq	-24(%rbp), %rdx
	leaq	-8(%rbp), %rax
	movq	%rdx, %rsi
	movq	%rax, %rdi
	call	_ZNSt14_List_iteratorIiEC1EPNSt8__detail15_List_node_baseE
	movq	-8(%rbp), %rax
	leave
	.cfi_def_cfa 7, 8
	ret
	.cfi_endproc
.LFE8892:
	.size	_ZNSt7__cxx114listIiSaIiEE3endEv, .-_ZNSt7__cxx114listIiSaIiEE3endEv
	.section	.text._ZStneRKSt14_List_iteratorIiES2_,"axG",@progbits,_ZStneRKSt14_List_iteratorIiES2_,comdat
	.weak	_ZStneRKSt14_List_iteratorIiES2_
	.type	_ZStneRKSt14_List_iteratorIiES2_, @function
_ZStneRKSt14_List_iteratorIiES2_:
.LFB8893:
	.cfi_startproc
	pushq	%rbp
	.cfi_def_cfa_offset 16
	.cfi_offset 6, -16
	movq	%rsp, %rbp
	.cfi_def_cfa_register 6
	movq	%rdi, -8(%rbp)
	movq	%rsi, -16(%rbp)
	movq	-8(%rbp), %rax
	movq	(%rax), %rdx
	movq	-16(%rbp), %rax
	movq	(%rax), %rax
	cmpq	%rax, %rdx
	setne	%al
	popq	%rbp
	.cfi_def_cfa 7, 8
	ret
	.cfi_endproc
.LFE8893:
	.size	_ZStneRKSt14_List_iteratorIiES2_, .-_ZStneRKSt14_List_iteratorIiES2_
	.section	.text._ZNSt14_List_iteratorIiEppEv,"axG",@progbits,_ZNSt14_List_iteratorIiEppEv,comdat
	.align 2
	.weak	_ZNSt14_List_iteratorIiEppEv
	.type	_ZNSt14_List_iteratorIiEppEv, @function
_ZNSt14_List_iteratorIiEppEv:
.LFB8894:
	.cfi_startproc
	pushq	%rbp
	.cfi_def_cfa_offset 16
	.cfi_offset 6, -16
	movq	%rsp, %rbp
	.cfi_def_cfa_register 6
	movq	%rdi, -8(%rbp)
	movq	-8(%rbp), %rax
	movq	(%rax), %rax
	movq	(%rax), %rdx
	movq	-8(%rbp), %rax
	movq	%rdx, (%rax)
	movq	-8(%rbp), %rax
	popq	%rbp
	.cfi_def_cfa 7, 8
	ret
	.cfi_endproc
.LFE8894:
	.size	_ZNSt14_List_iteratorIiEppEv, .-_ZNSt14_List_iteratorIiEppEv
	.section	.text._ZNKSt14_List_iteratorIiEdeEv,"axG",@progbits,_ZNKSt14_List_iteratorIiEdeEv,comdat
	.align 2
	.weak	_ZNKSt14_List_iteratorIiEdeEv
	.type	_ZNKSt14_List_iteratorIiEdeEv, @function
_ZNKSt14_List_iteratorIiEdeEv:
.LFB8895:
	.cfi_startproc
	pushq	%rbp
	.cfi_def_cfa_offset 16
	.cfi_offset 6, -16
	movq	%rsp, %rbp
	.cfi_def_cfa_register 6
	subq	$16, %rsp
	movq	%rdi, -8(%rbp)
	movq	-8(%rbp), %rax
	movq	(%rax), %rax
	movq	%rax, %rdi
	call	_ZNSt10_List_nodeIiE9_M_valptrEv
	leave
	.cfi_def_cfa 7, 8
	ret
	.cfi_endproc
.LFE8895:
	.size	_ZNKSt14_List_iteratorIiEdeEv, .-_ZNKSt14_List_iteratorIiEdeEv
	.section	.text._ZNSt7__cxx1110_List_baseIiSaIiEE10_List_implC2Ev,"axG",@progbits,_ZNSt7__cxx1110_List_baseIiSaIiEE10_List_implC5Ev,comdat
	.align 2
	.weak	_ZNSt7__cxx1110_List_baseIiSaIiEE10_List_implC2Ev
	.type	_ZNSt7__cxx1110_List_baseIiSaIiEE10_List_implC2Ev, @function
_ZNSt7__cxx1110_List_baseIiSaIiEE10_List_implC2Ev:
.LFB8897:
	.cfi_startproc
	pushq	%rbp
	.cfi_def_cfa_offset 16
	.cfi_offset 6, -16
	movq	%rsp, %rbp
	.cfi_def_cfa_register 6
	subq	$16, %rsp
	movq	%rdi, -8(%rbp)
	movq	-8(%rbp), %rax
	movq	%rax, %rdi
	call	_ZNSaISt10_List_nodeIiEEC2Ev
	movq	-8(%rbp), %rax
	movq	%rax, %rdi
	call	_ZNSt8__detail17_List_node_headerC1Ev
	nop
	leave
	.cfi_def_cfa 7, 8
	ret
	.cfi_endproc
.LFE8897:
	.size	_ZNSt7__cxx1110_List_baseIiSaIiEE10_List_implC2Ev, .-_ZNSt7__cxx1110_List_baseIiSaIiEE10_List_implC2Ev
	.weak	_ZNSt7__cxx1110_List_baseIiSaIiEE10_List_implC1Ev
	.set	_ZNSt7__cxx1110_List_baseIiSaIiEE10_List_implC1Ev,_ZNSt7__cxx1110_List_baseIiSaIiEE10_List_implC2Ev
	.section	.text._ZNSt12_Vector_baseISt4pairIiiESaIS1_EE12_Vector_implC2Ev,"axG",@progbits,_ZNSt12_Vector_baseISt4pairIiiESaIS1_EE12_Vector_implC5Ev,comdat
	.align 2
	.weak	_ZNSt12_Vector_baseISt4pairIiiESaIS1_EE12_Vector_implC2Ev
	.type	_ZNSt12_Vector_baseISt4pairIiiESaIS1_EE12_Vector_implC2Ev, @function
_ZNSt12_Vector_baseISt4pairIiiESaIS1_EE12_Vector_implC2Ev:
.LFB8906:
	.cfi_startproc
	pushq	%rbp
	.cfi_def_cfa_offset 16
	.cfi_offset 6, -16
	movq	%rsp, %rbp
	.cfi_def_cfa_register 6
	subq	$16, %rsp
	movq	%rdi, -8(%rbp)
	movq	-8(%rbp), %rax
	movq	%rax, %rdi
	call	_ZNSaISt4pairIiiEEC2Ev
	movq	-8(%rbp), %rax
	movq	%rax, %rdi
	call	_ZNSt12_Vector_baseISt4pairIiiESaIS1_EE17_Vector_impl_dataC2Ev
	nop
	leave
	.cfi_def_cfa 7, 8
	ret
	.cfi_endproc
.LFE8906:
	.size	_ZNSt12_Vector_baseISt4pairIiiESaIS1_EE12_Vector_implC2Ev, .-_ZNSt12_Vector_baseISt4pairIiiESaIS1_EE12_Vector_implC2Ev
	.weak	_ZNSt12_Vector_baseISt4pairIiiESaIS1_EE12_Vector_implC1Ev
	.set	_ZNSt12_Vector_baseISt4pairIiiESaIS1_EE12_Vector_implC1Ev,_ZNSt12_Vector_baseISt4pairIiiESaIS1_EE12_Vector_implC2Ev
	.section	.text._ZNSaISt4pairIiiEED2Ev,"axG",@progbits,_ZNSaISt4pairIiiEED5Ev,comdat
	.align 2
	.weak	_ZNSaISt4pairIiiEED2Ev
	.type	_ZNSaISt4pairIiiEED2Ev, @function
_ZNSaISt4pairIiiEED2Ev:
.LFB8909:
	.cfi_startproc
	pushq	%rbp
	.cfi_def_cfa_offset 16
	.cfi_offset 6, -16
	movq	%rsp, %rbp
	.cfi_def_cfa_register 6
	subq	$16, %rsp
	movq	%rdi, -8(%rbp)
	movq	-8(%rbp), %rax
	movq	%rax, %rdi
	call	_ZN9__gnu_cxx13new_allocatorISt4pairIiiEED2Ev
	nop
	leave
	.cfi_def_cfa 7, 8
	ret
	.cfi_endproc
.LFE8909:
	.size	_ZNSaISt4pairIiiEED2Ev, .-_ZNSaISt4pairIiiEED2Ev
	.weak	_ZNSaISt4pairIiiEED1Ev
	.set	_ZNSaISt4pairIiiEED1Ev,_ZNSaISt4pairIiiEED2Ev
	.section	.text._ZNSt12_Vector_baseISt4pairIiiESaIS1_EED2Ev,"axG",@progbits,_ZNSt12_Vector_baseISt4pairIiiESaIS1_EED5Ev,comdat
	.align 2
	.weak	_ZNSt12_Vector_baseISt4pairIiiESaIS1_EED2Ev
	.type	_ZNSt12_Vector_baseISt4pairIiiESaIS1_EED2Ev, @function
_ZNSt12_Vector_baseISt4pairIiiESaIS1_EED2Ev:
.LFB8912:
	.cfi_startproc
	.cfi_personality 0x9b,DW.ref.__gxx_personality_v0
	.cfi_lsda 0x1b,.LLSDA8912
	pushq	%rbp
	.cfi_def_cfa_offset 16
	.cfi_offset 6, -16
	movq	%rsp, %rbp
	.cfi_def_cfa_register 6
	subq	$16, %rsp
	movq	%rdi, -8(%rbp)
	movq	-8(%rbp), %rax
	movq	16(%rax), %rdx
	movq	-8(%rbp), %rax
	movq	(%rax), %rax
	subq	%rax, %rdx
	movq	%rdx, %rax
	sarq	$3, %rax
	movq	%rax, %rdx
	movq	-8(%rbp), %rax
	movq	(%rax), %rcx
	movq	-8(%rbp), %rax
	movq	%rcx, %rsi
	movq	%rax, %rdi
	call	_ZNSt12_Vector_baseISt4pairIiiESaIS1_EE13_M_deallocateEPS1_m
	movq	-8(%rbp), %rax
	movq	%rax, %rdi
	call	_ZNSt12_Vector_baseISt4pairIiiESaIS1_EE12_Vector_implD1Ev
	nop
	leave
	.cfi_def_cfa 7, 8
	ret
	.cfi_endproc
.LFE8912:
	.section	.gcc_except_table
.LLSDA8912:
	.byte	0xff
	.byte	0xff
	.byte	0x1
	.uleb128 .LLSDACSE8912-.LLSDACSB8912
.LLSDACSB8912:
.LLSDACSE8912:
	.section	.text._ZNSt12_Vector_baseISt4pairIiiESaIS1_EED2Ev,"axG",@progbits,_ZNSt12_Vector_baseISt4pairIiiESaIS1_EED5Ev,comdat
	.size	_ZNSt12_Vector_baseISt4pairIiiESaIS1_EED2Ev, .-_ZNSt12_Vector_baseISt4pairIiiESaIS1_EED2Ev
	.weak	_ZNSt12_Vector_baseISt4pairIiiESaIS1_EED1Ev
	.set	_ZNSt12_Vector_baseISt4pairIiiESaIS1_EED1Ev,_ZNSt12_Vector_baseISt4pairIiiESaIS1_EED2Ev
	.section	.text._ZNSt6vectorISt4pairIiiESaIS1_EED2Ev,"axG",@progbits,_ZNSt6vectorISt4pairIiiESaIS1_EED5Ev,comdat
	.align 2
	.weak	_ZNSt6vectorISt4pairIiiESaIS1_EED2Ev
	.type	_ZNSt6vectorISt4pairIiiESaIS1_EED2Ev, @function
_ZNSt6vectorISt4pairIiiESaIS1_EED2Ev:
.LFB8915:
	.cfi_startproc
	.cfi_personality 0x9b,DW.ref.__gxx_personality_v0
	.cfi_lsda 0x1b,.LLSDA8915
	pushq	%rbp
	.cfi_def_cfa_offset 16
	.cfi_offset 6, -16
	movq	%rsp, %rbp
	.cfi_def_cfa_register 6
	subq	$16, %rsp
	movq	%rdi, -8(%rbp)
	movq	-8(%rbp), %rax
	movq	%rax, %rdi
	call	_ZNSt12_Vector_baseISt4pairIiiESaIS1_EE19_M_get_Tp_allocatorEv
	movq	%rax, %rdx
	movq	-8(%rbp), %rax
	movq	8(%rax), %rcx
	movq	-8(%rbp), %rax
	movq	(%rax), %rax
	movq	%rcx, %rsi
	movq	%rax, %rdi
	call	_ZSt8_DestroyIPSt4pairIiiES1_EvT_S3_RSaIT0_E
	movq	-8(%rbp), %rax
	movq	%rax, %rdi
	call	_ZNSt12_Vector_baseISt4pairIiiESaIS1_EED2Ev
	nop
	leave
	.cfi_def_cfa 7, 8
	ret
	.cfi_endproc
.LFE8915:
	.section	.gcc_except_table
.LLSDA8915:
	.byte	0xff
	.byte	0xff
	.byte	0x1
	.uleb128 .LLSDACSE8915-.LLSDACSB8915
.LLSDACSB8915:
.LLSDACSE8915:
	.section	.text._ZNSt6vectorISt4pairIiiESaIS1_EED2Ev,"axG",@progbits,_ZNSt6vectorISt4pairIiiESaIS1_EED5Ev,comdat
	.size	_ZNSt6vectorISt4pairIiiESaIS1_EED2Ev, .-_ZNSt6vectorISt4pairIiiESaIS1_EED2Ev
	.weak	_ZNSt6vectorISt4pairIiiESaIS1_EED1Ev
	.set	_ZNSt6vectorISt4pairIiiESaIS1_EED1Ev,_ZNSt6vectorISt4pairIiiESaIS1_EED2Ev
	.section	.text._ZSt9make_pairIRiS0_ESt4pairINSt17__decay_and_stripIT_E6__typeENS2_IT0_E6__typeEEOS3_OS6_,"axG",@progbits,_ZSt9make_pairIRiS0_ESt4pairINSt17__decay_and_stripIT_E6__typeENS2_IT0_E6__typeEEOS3_OS6_,comdat
	.weak	_ZSt9make_pairIRiS0_ESt4pairINSt17__decay_and_stripIT_E6__typeENS2_IT0_E6__typeEEOS3_OS6_
	.type	_ZSt9make_pairIRiS0_ESt4pairINSt17__decay_and_stripIT_E6__typeENS2_IT0_E6__typeEEOS3_OS6_, @function
_ZSt9make_pairIRiS0_ESt4pairINSt17__decay_and_stripIT_E6__typeENS2_IT0_E6__typeEEOS3_OS6_:
.LFB8917:
	.cfi_startproc
	pushq	%rbp
	.cfi_def_cfa_offset 16
	.cfi_offset 6, -16
	movq	%rsp, %rbp
	.cfi_def_cfa_register 6
	pushq	%rbx
	subq	$40, %rsp
	.cfi_offset 3, -24
	movq	%rdi, -40(%rbp)
	movq	%rsi, -48(%rbp)
	movq	-48(%rbp), %rax
	movq	%rax, %rdi
	call	_ZSt7forwardIRiEOT_RNSt16remove_referenceIS1_E4typeE
	movq	%rax, %rbx
	movq	-40(%rbp), %rax
	movq	%rax, %rdi
	call	_ZSt7forwardIRiEOT_RNSt16remove_referenceIS1_E4typeE
	movq	%rax, %rcx
	leaq	-24(%rbp), %rax
	movq	%rbx, %rdx
	movq	%rcx, %rsi
	movq	%rax, %rdi
	call	_ZNSt4pairIiiEC1IRiS2_Lb1EEEOT_OT0_
	movq	-24(%rbp), %rax
	addq	$40, %rsp
	popq	%rbx
	popq	%rbp
	.cfi_def_cfa 7, 8
	ret
	.cfi_endproc
.LFE8917:
	.size	_ZSt9make_pairIRiS0_ESt4pairINSt17__decay_and_stripIT_E6__typeENS2_IT0_E6__typeEEOS3_OS6_, .-_ZSt9make_pairIRiS0_ESt4pairINSt17__decay_and_stripIT_E6__typeENS2_IT0_E6__typeEEOS3_OS6_
	.section	.text._ZNSt6vectorISt4pairIiiESaIS1_EE9push_backEOS1_,"axG",@progbits,_ZNSt6vectorISt4pairIiiESaIS1_EE9push_backEOS1_,comdat
	.align 2
	.weak	_ZNSt6vectorISt4pairIiiESaIS1_EE9push_backEOS1_
	.type	_ZNSt6vectorISt4pairIiiESaIS1_EE9push_backEOS1_, @function
_ZNSt6vectorISt4pairIiiESaIS1_EE9push_backEOS1_:
.LFB8930:
	.cfi_startproc
	pushq	%rbp
	.cfi_def_cfa_offset 16
	.cfi_offset 6, -16
	movq	%rsp, %rbp
	.cfi_def_cfa_register 6
	subq	$16, %rsp
	movq	%rdi, -8(%rbp)
	movq	%rsi, -16(%rbp)
	movq	-16(%rbp), %rax
	movq	%rax, %rdi
	call	_ZSt4moveIRSt4pairIiiEEONSt16remove_referenceIT_E4typeEOS4_
	movq	%rax, %rdx
	movq	-8(%rbp), %rax
	movq	%rdx, %rsi
	movq	%rax, %rdi
	call	_ZNSt6vectorISt4pairIiiESaIS1_EE12emplace_backIJS1_EEEvDpOT_
	nop
	leave
	.cfi_def_cfa 7, 8
	ret
	.cfi_endproc
.LFE8930:
	.size	_ZNSt6vectorISt4pairIiiESaIS1_EE9push_backEOS1_, .-_ZNSt6vectorISt4pairIiiESaIS1_EE9push_backEOS1_
	.section	.text._ZNSt6vectorISt4pairIiiESaIS1_EE5beginEv,"axG",@progbits,_ZNSt6vectorISt4pairIiiESaIS1_EE5beginEv,comdat
	.align 2
	.weak	_ZNSt6vectorISt4pairIiiESaIS1_EE5beginEv
	.type	_ZNSt6vectorISt4pairIiiESaIS1_EE5beginEv, @function
_ZNSt6vectorISt4pairIiiESaIS1_EE5beginEv:
.LFB8931:
	.cfi_startproc
	pushq	%rbp
	.cfi_def_cfa_offset 16
	.cfi_offset 6, -16
	movq	%rsp, %rbp
	.cfi_def_cfa_register 6
	subq	$32, %rsp
	movq	%rdi, -24(%rbp)
	movq	-24(%rbp), %rdx
	leaq	-8(%rbp), %rax
	movq	%rdx, %rsi
	movq	%rax, %rdi
	call	_ZN9__gnu_cxx17__normal_iteratorIPSt4pairIiiESt6vectorIS2_SaIS2_EEEC1ERKS3_
	movq	-8(%rbp), %rax
	leave
	.cfi_def_cfa 7, 8
	ret
	.cfi_endproc
.LFE8931:
	.size	_ZNSt6vectorISt4pairIiiESaIS1_EE5beginEv, .-_ZNSt6vectorISt4pairIiiESaIS1_EE5beginEv
	.section	.text._ZNSt6vectorISt4pairIiiESaIS1_EE3endEv,"axG",@progbits,_ZNSt6vectorISt4pairIiiESaIS1_EE3endEv,comdat
	.align 2
	.weak	_ZNSt6vectorISt4pairIiiESaIS1_EE3endEv
	.type	_ZNSt6vectorISt4pairIiiESaIS1_EE3endEv, @function
_ZNSt6vectorISt4pairIiiESaIS1_EE3endEv:
.LFB8932:
	.cfi_startproc
	pushq	%rbp
	.cfi_def_cfa_offset 16
	.cfi_offset 6, -16
	movq	%rsp, %rbp
	.cfi_def_cfa_register 6
	subq	$32, %rsp
	movq	%rdi, -24(%rbp)
	movq	-24(%rbp), %rax
	leaq	8(%rax), %rdx
	leaq	-8(%rbp), %rax
	movq	%rdx, %rsi
	movq	%rax, %rdi
	call	_ZN9__gnu_cxx17__normal_iteratorIPSt4pairIiiESt6vectorIS2_SaIS2_EEEC1ERKS3_
	movq	-8(%rbp), %rax
	leave
	.cfi_def_cfa 7, 8
	ret
	.cfi_endproc
.LFE8932:
	.size	_ZNSt6vectorISt4pairIiiESaIS1_EE3endEv, .-_ZNSt6vectorISt4pairIiiESaIS1_EE3endEv
	.section	.text._ZSt4sortIN9__gnu_cxx17__normal_iteratorIPSt4pairIiiESt6vectorIS3_SaIS3_EEEEEvT_S9_,"axG",@progbits,_ZSt4sortIN9__gnu_cxx17__normal_iteratorIPSt4pairIiiESt6vectorIS3_SaIS3_EEEEEvT_S9_,comdat
	.weak	_ZSt4sortIN9__gnu_cxx17__normal_iteratorIPSt4pairIiiESt6vectorIS3_SaIS3_EEEEEvT_S9_
	.type	_ZSt4sortIN9__gnu_cxx17__normal_iteratorIPSt4pairIiiESt6vectorIS3_SaIS3_EEEEEvT_S9_, @function
_ZSt4sortIN9__gnu_cxx17__normal_iteratorIPSt4pairIiiESt6vectorIS3_SaIS3_EEEEEvT_S9_:
.LFB8933:
	.cfi_startproc
	pushq	%rbp
	.cfi_def_cfa_offset 16
	.cfi_offset 6, -16
	movq	%rsp, %rbp
	.cfi_def_cfa_register 6
	subq	$32, %rsp
	movq	%rdi, -24(%rbp)
	movq	%rsi, -32(%rbp)
	call	_ZN9__gnu_cxx5__ops16__iter_less_iterEv
	movq	-32(%rbp), %rdx
	movq	-24(%rbp), %rax
	movq	%rdx, %rsi
	movq	%rax, %rdi
	call	_ZSt6__sortIN9__gnu_cxx17__normal_iteratorIPSt4pairIiiESt6vectorIS3_SaIS3_EEEENS0_5__ops15_Iter_less_iterEEvT_SB_T0_
	nop
	leave
	.cfi_def_cfa 7, 8
	ret
	.cfi_endproc
.LFE8933:
	.size	_ZSt4sortIN9__gnu_cxx17__normal_iteratorIPSt4pairIiiESt6vectorIS3_SaIS3_EEEEEvT_S9_, .-_ZSt4sortIN9__gnu_cxx17__normal_iteratorIPSt4pairIiiESt6vectorIS3_SaIS3_EEEEEvT_S9_
	.section	.text._ZNSt7__cxx114listIiSaIiEE5clearEv,"axG",@progbits,_ZNSt7__cxx114listIiSaIiEE5clearEv,comdat
	.align 2
	.weak	_ZNSt7__cxx114listIiSaIiEE5clearEv
	.type	_ZNSt7__cxx114listIiSaIiEE5clearEv, @function
_ZNSt7__cxx114listIiSaIiEE5clearEv:
.LFB8934:
	.cfi_startproc
	pushq	%rbp
	.cfi_def_cfa_offset 16
	.cfi_offset 6, -16
	movq	%rsp, %rbp
	.cfi_def_cfa_register 6
	subq	$16, %rsp
	movq	%rdi, -8(%rbp)
	movq	-8(%rbp), %rax
	movq	%rax, %rdi
	call	_ZNSt7__cxx1110_List_baseIiSaIiEE8_M_clearEv
	movq	-8(%rbp), %rax
	movq	%rax, %rdi
	call	_ZNSt7__cxx1110_List_baseIiSaIiEE7_M_initEv
	nop
	leave
	.cfi_def_cfa 7, 8
	ret
	.cfi_endproc
.LFE8934:
	.size	_ZNSt7__cxx114listIiSaIiEE5clearEv, .-_ZNSt7__cxx114listIiSaIiEE5clearEv
	.section	.text._ZNSt6vectorISt4pairIiiESaIS1_EE6rbeginEv,"axG",@progbits,_ZNSt6vectorISt4pairIiiESaIS1_EE6rbeginEv,comdat
	.align 2
	.weak	_ZNSt6vectorISt4pairIiiESaIS1_EE6rbeginEv
	.type	_ZNSt6vectorISt4pairIiiESaIS1_EE6rbeginEv, @function
_ZNSt6vectorISt4pairIiiESaIS1_EE6rbeginEv:
.LFB8935:
	.cfi_startproc
	pushq	%rbp
	.cfi_def_cfa_offset 16
	.cfi_offset 6, -16
	movq	%rsp, %rbp
	.cfi_def_cfa_register 6
	subq	$16, %rsp
	movq	%rdi, -8(%rbp)
	movq	%rsi, -16(%rbp)
	movq	-16(%rbp), %rax
	movq	%rax, %rdi
	call	_ZNSt6vectorISt4pairIiiESaIS1_EE3endEv
	movq	%rax, %rdx
	movq	-8(%rbp), %rax
	movq	%rdx, %rsi
	movq	%rax, %rdi
	call	_ZNSt16reverse_iteratorIN9__gnu_cxx17__normal_iteratorIPSt4pairIiiESt6vectorIS3_SaIS3_EEEEEC1ES8_
	movq	-8(%rbp), %rax
	leave
	.cfi_def_cfa 7, 8
	ret
	.cfi_endproc
.LFE8935:
	.size	_ZNSt6vectorISt4pairIiiESaIS1_EE6rbeginEv, .-_ZNSt6vectorISt4pairIiiESaIS1_EE6rbeginEv
	.section	.text._ZNSt6vectorISt4pairIiiESaIS1_EE4rendEv,"axG",@progbits,_ZNSt6vectorISt4pairIiiESaIS1_EE4rendEv,comdat
	.align 2
	.weak	_ZNSt6vectorISt4pairIiiESaIS1_EE4rendEv
	.type	_ZNSt6vectorISt4pairIiiESaIS1_EE4rendEv, @function
_ZNSt6vectorISt4pairIiiESaIS1_EE4rendEv:
.LFB8939:
	.cfi_startproc
	pushq	%rbp
	.cfi_def_cfa_offset 16
	.cfi_offset 6, -16
	movq	%rsp, %rbp
	.cfi_def_cfa_register 6
	subq	$16, %rsp
	movq	%rdi, -8(%rbp)
	movq	%rsi, -16(%rbp)
	movq	-16(%rbp), %rax
	movq	%rax, %rdi
	call	_ZNSt6vectorISt4pairIiiESaIS1_EE5beginEv
	movq	%rax, %rdx
	movq	-8(%rbp), %rax
	movq	%rdx, %rsi
	movq	%rax, %rdi
	call	_ZNSt16reverse_iteratorIN9__gnu_cxx17__normal_iteratorIPSt4pairIiiESt6vectorIS3_SaIS3_EEEEEC1ES8_
	movq	-8(%rbp), %rax
	leave
	.cfi_def_cfa 7, 8
	ret
	.cfi_endproc
.LFE8939:
	.size	_ZNSt6vectorISt4pairIiiESaIS1_EE4rendEv, .-_ZNSt6vectorISt4pairIiiESaIS1_EE4rendEv
	.section	.text._ZStneIN9__gnu_cxx17__normal_iteratorIPSt4pairIiiESt6vectorIS3_SaIS3_EEEEEbRKSt16reverse_iteratorIT_ESD_,"axG",@progbits,_ZStneIN9__gnu_cxx17__normal_iteratorIPSt4pairIiiESt6vectorIS3_SaIS3_EEEEEbRKSt16reverse_iteratorIT_ESD_,comdat
	.weak	_ZStneIN9__gnu_cxx17__normal_iteratorIPSt4pairIiiESt6vectorIS3_SaIS3_EEEEEbRKSt16reverse_iteratorIT_ESD_
	.type	_ZStneIN9__gnu_cxx17__normal_iteratorIPSt4pairIiiESt6vectorIS3_SaIS3_EEEEEbRKSt16reverse_iteratorIT_ESD_, @function
_ZStneIN9__gnu_cxx17__normal_iteratorIPSt4pairIiiESt6vectorIS3_SaIS3_EEEEEbRKSt16reverse_iteratorIT_ESD_:
.LFB8940:
	.cfi_startproc
	pushq	%rbp
	.cfi_def_cfa_offset 16
	.cfi_offset 6, -16
	movq	%rsp, %rbp
	.cfi_def_cfa_register 6
	subq	$16, %rsp
	movq	%rdi, -8(%rbp)
	movq	%rsi, -16(%rbp)
	movq	-16(%rbp), %rdx
	movq	-8(%rbp), %rax
	movq	%rdx, %rsi
	movq	%rax, %rdi
	call	_ZSteqIN9__gnu_cxx17__normal_iteratorIPSt4pairIiiESt6vectorIS3_SaIS3_EEEEEbRKSt16reverse_iteratorIT_ESD_
	xorl	$1, %eax
	leave
	.cfi_def_cfa 7, 8
	ret
	.cfi_endproc
.LFE8940:
	.size	_ZStneIN9__gnu_cxx17__normal_iteratorIPSt4pairIiiESt6vectorIS3_SaIS3_EEEEEbRKSt16reverse_iteratorIT_ESD_, .-_ZStneIN9__gnu_cxx17__normal_iteratorIPSt4pairIiiESt6vectorIS3_SaIS3_EEEEEbRKSt16reverse_iteratorIT_ESD_
	.section	.text._ZNSt16reverse_iteratorIN9__gnu_cxx17__normal_iteratorIPSt4pairIiiESt6vectorIS3_SaIS3_EEEEEppEv,"axG",@progbits,_ZNSt16reverse_iteratorIN9__gnu_cxx17__normal_iteratorIPSt4pairIiiESt6vectorIS3_SaIS3_EEEEEppEv,comdat
	.align 2
	.weak	_ZNSt16reverse_iteratorIN9__gnu_cxx17__normal_iteratorIPSt4pairIiiESt6vectorIS3_SaIS3_EEEEEppEv
	.type	_ZNSt16reverse_iteratorIN9__gnu_cxx17__normal_iteratorIPSt4pairIiiESt6vectorIS3_SaIS3_EEEEEppEv, @function
_ZNSt16reverse_iteratorIN9__gnu_cxx17__normal_iteratorIPSt4pairIiiESt6vectorIS3_SaIS3_EEEEEppEv:
.LFB8941:
	.cfi_startproc
	pushq	%rbp
	.cfi_def_cfa_offset 16
	.cfi_offset 6, -16
	movq	%rsp, %rbp
	.cfi_def_cfa_register 6
	subq	$16, %rsp
	movq	%rdi, -8(%rbp)
	movq	-8(%rbp), %rax
	movq	%rax, %rdi
	call	_ZN9__gnu_cxx17__normal_iteratorIPSt4pairIiiESt6vectorIS2_SaIS2_EEEmmEv
	movq	-8(%rbp), %rax
	leave
	.cfi_def_cfa 7, 8
	ret
	.cfi_endproc
.LFE8941:
	.size	_ZNSt16reverse_iteratorIN9__gnu_cxx17__normal_iteratorIPSt4pairIiiESt6vectorIS3_SaIS3_EEEEEppEv, .-_ZNSt16reverse_iteratorIN9__gnu_cxx17__normal_iteratorIPSt4pairIiiESt6vectorIS3_SaIS3_EEEEEppEv
	.section	.text._ZNKSt16reverse_iteratorIN9__gnu_cxx17__normal_iteratorIPSt4pairIiiESt6vectorIS3_SaIS3_EEEEEdeEv,"axG",@progbits,_ZNKSt16reverse_iteratorIN9__gnu_cxx17__normal_iteratorIPSt4pairIiiESt6vectorIS3_SaIS3_EEEEEdeEv,comdat
	.align 2
	.weak	_ZNKSt16reverse_iteratorIN9__gnu_cxx17__normal_iteratorIPSt4pairIiiESt6vectorIS3_SaIS3_EEEEEdeEv
	.type	_ZNKSt16reverse_iteratorIN9__gnu_cxx17__normal_iteratorIPSt4pairIiiESt6vectorIS3_SaIS3_EEEEEdeEv, @function
_ZNKSt16reverse_iteratorIN9__gnu_cxx17__normal_iteratorIPSt4pairIiiESt6vectorIS3_SaIS3_EEEEEdeEv:
.LFB8942:
	.cfi_startproc
	pushq	%rbp
	.cfi_def_cfa_offset 16
	.cfi_offset 6, -16
	movq	%rsp, %rbp
	.cfi_def_cfa_register 6
	subq	$32, %rsp
	movq	%rdi, -24(%rbp)
	movq	-24(%rbp), %rax
	movq	(%rax), %rax
	movq	%rax, -8(%rbp)
	leaq	-8(%rbp), %rax
	movq	%rax, %rdi
	call	_ZN9__gnu_cxx17__normal_iteratorIPSt4pairIiiESt6vectorIS2_SaIS2_EEEmmEv
	movq	%rax, %rdi
	call	_ZNK9__gnu_cxx17__normal_iteratorIPSt4pairIiiESt6vectorIS2_SaIS2_EEEdeEv
	leave
	.cfi_def_cfa 7, 8
	ret
	.cfi_endproc
.LFE8942:
	.size	_ZNKSt16reverse_iteratorIN9__gnu_cxx17__normal_iteratorIPSt4pairIiiESt6vectorIS3_SaIS3_EEEEEdeEv, .-_ZNKSt16reverse_iteratorIN9__gnu_cxx17__normal_iteratorIPSt4pairIiiESt6vectorIS3_SaIS3_EEEEEdeEv
	.section	.text._ZNSt6vectorISt4pairIiiESaIS1_EE5clearEv,"axG",@progbits,_ZNSt6vectorISt4pairIiiESaIS1_EE5clearEv,comdat
	.align 2
	.weak	_ZNSt6vectorISt4pairIiiESaIS1_EE5clearEv
	.type	_ZNSt6vectorISt4pairIiiESaIS1_EE5clearEv, @function
_ZNSt6vectorISt4pairIiiESaIS1_EE5clearEv:
.LFB8943:
	.cfi_startproc
	pushq	%rbp
	.cfi_def_cfa_offset 16
	.cfi_offset 6, -16
	movq	%rsp, %rbp
	.cfi_def_cfa_register 6
	subq	$16, %rsp
	movq	%rdi, -8(%rbp)
	movq	-8(%rbp), %rax
	movq	(%rax), %rdx
	movq	-8(%rbp), %rax
	movq	%rdx, %rsi
	movq	%rax, %rdi
	call	_ZNSt6vectorISt4pairIiiESaIS1_EE15_M_erase_at_endEPS1_
	nop
	leave
	.cfi_def_cfa 7, 8
	ret
	.cfi_endproc
.LFE8943:
	.size	_ZNSt6vectorISt4pairIiiESaIS1_EE5clearEv, .-_ZNSt6vectorISt4pairIiiESaIS1_EE5clearEv
	.section	.text._ZSt3minIiERKT_S2_S2_,"axG",@progbits,_ZSt3minIiERKT_S2_S2_,comdat
	.weak	_ZSt3minIiERKT_S2_S2_
	.type	_ZSt3minIiERKT_S2_S2_, @function
_ZSt3minIiERKT_S2_S2_:
.LFB8944:
	.cfi_startproc
	pushq	%rbp
	.cfi_def_cfa_offset 16
	.cfi_offset 6, -16
	movq	%rsp, %rbp
	.cfi_def_cfa_register 6
	movq	%rdi, -8(%rbp)
	movq	%rsi, -16(%rbp)
	movq	-16(%rbp), %rax
	movl	(%rax), %edx
	movq	-8(%rbp), %rax
	movl	(%rax), %eax
	cmpl	%eax, %edx
	jge	.L112
	movq	-16(%rbp), %rax
	jmp	.L113
.L112:
	movq	-8(%rbp), %rax
.L113:
	popq	%rbp
	.cfi_def_cfa 7, 8
	ret
	.cfi_endproc
.LFE8944:
	.size	_ZSt3minIiERKT_S2_S2_, .-_ZSt3minIiERKT_S2_S2_
	.section	.text._ZNSt7__cxx114listIiSaIiEE9_M_insertIJRKiEEEvSt14_List_iteratorIiEDpOT_,"axG",@progbits,_ZNSt7__cxx114listIiSaIiEE9_M_insertIJRKiEEEvSt14_List_iteratorIiEDpOT_,comdat
	.align 2
	.weak	_ZNSt7__cxx114listIiSaIiEE9_M_insertIJRKiEEEvSt14_List_iteratorIiEDpOT_
	.type	_ZNSt7__cxx114listIiSaIiEE9_M_insertIJRKiEEEvSt14_List_iteratorIiEDpOT_, @function
_ZNSt7__cxx114listIiSaIiEE9_M_insertIJRKiEEEvSt14_List_iteratorIiEDpOT_:
.LFB9244:
	.cfi_startproc
	pushq	%rbp
	.cfi_def_cfa_offset 16
	.cfi_offset 6, -16
	movq	%rsp, %rbp
	.cfi_def_cfa_register 6
	subq	$48, %rsp
	movq	%rdi, -24(%rbp)
	movq	%rsi, -32(%rbp)
	movq	%rdx, -40(%rbp)
	movq	-40(%rbp), %rax
	movq	%rax, %rdi
	call	_ZSt7forwardIRKiEOT_RNSt16remove_referenceIS2_E4typeE
	movq	%rax, %rdx
	movq	-24(%rbp), %rax
	movq	%rdx, %rsi
	movq	%rax, %rdi
	call	_ZNSt7__cxx114listIiSaIiEE14_M_create_nodeIJRKiEEEPSt10_List_nodeIiEDpOT_
	movq	%rax, -8(%rbp)
	movq	-8(%rbp), %rax
	movq	-32(%rbp), %rdx
	movq	%rdx, %rsi
	movq	%rax, %rdi
	call	_ZNSt8__detail15_List_node_base7_M_hookEPS0_@PLT
	movq	-24(%rbp), %rax
	movl	$1, %esi
	movq	%rax, %rdi
	call	_ZNSt7__cxx1110_List_baseIiSaIiEE11_M_inc_sizeEm
	nop
	leave
	.cfi_def_cfa 7, 8
	ret
	.cfi_endproc
.LFE9244:
	.size	_ZNSt7__cxx114listIiSaIiEE9_M_insertIJRKiEEEvSt14_List_iteratorIiEDpOT_, .-_ZNSt7__cxx114listIiSaIiEE9_M_insertIJRKiEEEvSt14_List_iteratorIiEDpOT_
	.section	.text._ZNSt5dequeIiSaIiEEC2Ev,"axG",@progbits,_ZNSt5dequeIiSaIiEEC5Ev,comdat
	.align 2
	.weak	_ZNSt5dequeIiSaIiEEC2Ev
	.type	_ZNSt5dequeIiSaIiEEC2Ev, @function
_ZNSt5dequeIiSaIiEEC2Ev:
.LFB9246:
	.cfi_startproc
	pushq	%rbp
	.cfi_def_cfa_offset 16
	.cfi_offset 6, -16
	movq	%rsp, %rbp
	.cfi_def_cfa_register 6
	subq	$16, %rsp
	movq	%rdi, -8(%rbp)
	movq	-8(%rbp), %rax
	movq	%rax, %rdi
	call	_ZNSt11_Deque_baseIiSaIiEEC2Ev
	nop
	leave
	.cfi_def_cfa 7, 8
	ret
	.cfi_endproc
.LFE9246:
	.size	_ZNSt5dequeIiSaIiEEC2Ev, .-_ZNSt5dequeIiSaIiEEC2Ev
	.weak	_ZNSt5dequeIiSaIiEEC1Ev
	.set	_ZNSt5dequeIiSaIiEEC1Ev,_ZNSt5dequeIiSaIiEEC2Ev
	.section	.text._ZNSt11_Deque_baseIiSaIiEE11_Deque_implD2Ev,"axG",@progbits,_ZNSt11_Deque_baseIiSaIiEE11_Deque_implD5Ev,comdat
	.align 2
	.weak	_ZNSt11_Deque_baseIiSaIiEE11_Deque_implD2Ev
	.type	_ZNSt11_Deque_baseIiSaIiEE11_Deque_implD2Ev, @function
_ZNSt11_Deque_baseIiSaIiEE11_Deque_implD2Ev:
.LFB9250:
	.cfi_startproc
	pushq	%rbp
	.cfi_def_cfa_offset 16
	.cfi_offset 6, -16
	movq	%rsp, %rbp
	.cfi_def_cfa_register 6
	subq	$16, %rsp
	movq	%rdi, -8(%rbp)
	movq	-8(%rbp), %rax
	movq	%rax, %rdi
	call	_ZNSaIiED2Ev
	nop
	leave
	.cfi_def_cfa 7, 8
	ret
	.cfi_endproc
.LFE9250:
	.size	_ZNSt11_Deque_baseIiSaIiEE11_Deque_implD2Ev, .-_ZNSt11_Deque_baseIiSaIiEE11_Deque_implD2Ev
	.weak	_ZNSt11_Deque_baseIiSaIiEE11_Deque_implD1Ev
	.set	_ZNSt11_Deque_baseIiSaIiEE11_Deque_implD1Ev,_ZNSt11_Deque_baseIiSaIiEE11_Deque_implD2Ev
	.section	.text._ZNSt11_Deque_baseIiSaIiEED2Ev,"axG",@progbits,_ZNSt11_Deque_baseIiSaIiEED5Ev,comdat
	.align 2
	.weak	_ZNSt11_Deque_baseIiSaIiEED2Ev
	.type	_ZNSt11_Deque_baseIiSaIiEED2Ev, @function
_ZNSt11_Deque_baseIiSaIiEED2Ev:
.LFB9252:
	.cfi_startproc
	pushq	%rbp
	.cfi_def_cfa_offset 16
	.cfi_offset 6, -16
	movq	%rsp, %rbp
	.cfi_def_cfa_register 6
	subq	$16, %rsp
	movq	%rdi, -8(%rbp)
	movq	-8(%rbp), %rax
	movq	(%rax), %rax
	testq	%rax, %rax
	je	.L118
	movq	-8(%rbp), %rax
	movq	72(%rax), %rax
	leaq	8(%rax), %rdx
	movq	-8(%rbp), %rax
	movq	40(%rax), %rcx
	movq	-8(%rbp), %rax
	movq	%rcx, %rsi
	movq	%rax, %rdi
	call	_ZNSt11_Deque_baseIiSaIiEE16_M_destroy_nodesEPPiS3_
	movq	-8(%rbp), %rax
	movq	8(%rax), %rdx
	movq	-8(%rbp), %rax
	movq	(%rax), %rcx
	movq	-8(%rbp), %rax
	movq	%rcx, %rsi
	movq	%rax, %rdi
	call	_ZNSt11_Deque_baseIiSaIiEE17_M_deallocate_mapEPPim
.L118:
	movq	-8(%rbp), %rax
	movq	%rax, %rdi
	call	_ZNSt11_Deque_baseIiSaIiEE11_Deque_implD1Ev
	nop
	leave
	.cfi_def_cfa 7, 8
	ret
	.cfi_endproc
.LFE9252:
	.size	_ZNSt11_Deque_baseIiSaIiEED2Ev, .-_ZNSt11_Deque_baseIiSaIiEED2Ev
	.weak	_ZNSt11_Deque_baseIiSaIiEED1Ev
	.set	_ZNSt11_Deque_baseIiSaIiEED1Ev,_ZNSt11_Deque_baseIiSaIiEED2Ev
	.section	.text._ZNSt5dequeIiSaIiEE5beginEv,"axG",@progbits,_ZNSt5dequeIiSaIiEE5beginEv,comdat
	.align 2
	.weak	_ZNSt5dequeIiSaIiEE5beginEv
	.type	_ZNSt5dequeIiSaIiEE5beginEv, @function
_ZNSt5dequeIiSaIiEE5beginEv:
.LFB9254:
	.cfi_startproc
	pushq	%rbp
	.cfi_def_cfa_offset 16
	.cfi_offset 6, -16
	movq	%rsp, %rbp
	.cfi_def_cfa_register 6
	movq	%rdi, -8(%rbp)
	movq	%rsi, -16(%rbp)
	movq	-8(%rbp), %rcx
	movq	-16(%rbp), %rsi
	movq	16(%rsi), %rax
	movq	24(%rsi), %rdx
	movq	%rax, (%rcx)
	movq	%rdx, 8(%rcx)
	movq	32(%rsi), %rax
	movq	40(%rsi), %rdx
	movq	%rax, 16(%rcx)
	movq	%rdx, 24(%rcx)
	movq	-8(%rbp), %rax
	popq	%rbp
	.cfi_def_cfa 7, 8
	ret
	.cfi_endproc
.LFE9254:
	.size	_ZNSt5dequeIiSaIiEE5beginEv, .-_ZNSt5dequeIiSaIiEE5beginEv
	.section	.text._ZNSt5dequeIiSaIiEE3endEv,"axG",@progbits,_ZNSt5dequeIiSaIiEE3endEv,comdat
	.align 2
	.weak	_ZNSt5dequeIiSaIiEE3endEv
	.type	_ZNSt5dequeIiSaIiEE3endEv, @function
_ZNSt5dequeIiSaIiEE3endEv:
.LFB9255:
	.cfi_startproc
	pushq	%rbp
	.cfi_def_cfa_offset 16
	.cfi_offset 6, -16
	movq	%rsp, %rbp
	.cfi_def_cfa_register 6
	movq	%rdi, -8(%rbp)
	movq	%rsi, -16(%rbp)
	movq	-8(%rbp), %rcx
	movq	-16(%rbp), %rsi
	movq	48(%rsi), %rax
	movq	56(%rsi), %rdx
	movq	%rax, (%rcx)
	movq	%rdx, 8(%rcx)
	movq	64(%rsi), %rax
	movq	72(%rsi), %rdx
	movq	%rax, 16(%rcx)
	movq	%rdx, 24(%rcx)
	movq	-8(%rbp), %rax
	popq	%rbp
	.cfi_def_cfa 7, 8
	ret
	.cfi_endproc
.LFE9255:
	.size	_ZNSt5dequeIiSaIiEE3endEv, .-_ZNSt5dequeIiSaIiEE3endEv
	.section	.text._ZNSt11_Deque_baseIiSaIiEE19_M_get_Tp_allocatorEv,"axG",@progbits,_ZNSt11_Deque_baseIiSaIiEE19_M_get_Tp_allocatorEv,comdat
	.align 2
	.weak	_ZNSt11_Deque_baseIiSaIiEE19_M_get_Tp_allocatorEv
	.type	_ZNSt11_Deque_baseIiSaIiEE19_M_get_Tp_allocatorEv, @function
_ZNSt11_Deque_baseIiSaIiEE19_M_get_Tp_allocatorEv:
.LFB9256:
	.cfi_startproc
	pushq	%rbp
	.cfi_def_cfa_offset 16
	.cfi_offset 6, -16
	movq	%rsp, %rbp
	.cfi_def_cfa_register 6
	movq	%rdi, -8(%rbp)
	movq	-8(%rbp), %rax
	popq	%rbp
	.cfi_def_cfa 7, 8
	ret
	.cfi_endproc
.LFE9256:
	.size	_ZNSt11_Deque_baseIiSaIiEE19_M_get_Tp_allocatorEv, .-_ZNSt11_Deque_baseIiSaIiEE19_M_get_Tp_allocatorEv
	.section	.text._ZNSt5dequeIiSaIiEE15_M_destroy_dataESt15_Deque_iteratorIiRiPiES5_RKS0_,"axG",@progbits,_ZNSt5dequeIiSaIiEE15_M_destroy_dataESt15_Deque_iteratorIiRiPiES5_RKS0_,comdat
	.align 2
	.weak	_ZNSt5dequeIiSaIiEE15_M_destroy_dataESt15_Deque_iteratorIiRiPiES5_RKS0_
	.type	_ZNSt5dequeIiSaIiEE15_M_destroy_dataESt15_Deque_iteratorIiRiPiES5_RKS0_, @function
_ZNSt5dequeIiSaIiEE15_M_destroy_dataESt15_Deque_iteratorIiRiPiES5_RKS0_:
.LFB9257:
	.cfi_startproc
	pushq	%rbp
	.cfi_def_cfa_offset 16
	.cfi_offset 6, -16
	movq	%rsp, %rbp
	.cfi_def_cfa_register 6
	movq	%rdi, -8(%rbp)
	movq	%rsi, -16(%rbp)
	nop
	popq	%rbp
	.cfi_def_cfa 7, 8
	ret
	.cfi_endproc
.LFE9257:
	.size	_ZNSt5dequeIiSaIiEE15_M_destroy_dataESt15_Deque_iteratorIiRiPiES5_RKS0_, .-_ZNSt5dequeIiSaIiEE15_M_destroy_dataESt15_Deque_iteratorIiRiPiES5_RKS0_
	.section	.text._ZNSt5dequeIiSaIiEE9push_backERKi,"axG",@progbits,_ZNSt5dequeIiSaIiEE9push_backERKi,comdat
	.align 2
	.weak	_ZNSt5dequeIiSaIiEE9push_backERKi
	.type	_ZNSt5dequeIiSaIiEE9push_backERKi, @function
_ZNSt5dequeIiSaIiEE9push_backERKi:
.LFB9258:
	.cfi_startproc
	pushq	%rbp
	.cfi_def_cfa_offset 16
	.cfi_offset 6, -16
	movq	%rsp, %rbp
	.cfi_def_cfa_register 6
	subq	$16, %rsp
	movq	%rdi, -8(%rbp)
	movq	%rsi, -16(%rbp)
	movq	-8(%rbp), %rax
	movq	48(%rax), %rdx
	movq	-8(%rbp), %rax
	movq	64(%rax), %rax
	subq	$4, %rax
	cmpq	%rax, %rdx
	je	.L127
	movq	-8(%rbp), %rax
	movq	48(%rax), %rcx
	movq	-8(%rbp), %rax
	movq	-16(%rbp), %rdx
	movq	%rcx, %rsi
	movq	%rax, %rdi
	call	_ZNSt16allocator_traitsISaIiEE9constructIiJRKiEEEvRS0_PT_DpOT0_
	movq	-8(%rbp), %rax
	movq	48(%rax), %rax
	leaq	4(%rax), %rdx
	movq	-8(%rbp), %rax
	movq	%rdx, 48(%rax)
	jmp	.L129
.L127:
	movq	-16(%rbp), %rdx
	movq	-8(%rbp), %rax
	movq	%rdx, %rsi
	movq	%rax, %rdi
	call	_ZNSt5dequeIiSaIiEE16_M_push_back_auxIJRKiEEEvDpOT_
.L129:
	nop
	leave
	.cfi_def_cfa 7, 8
	ret
	.cfi_endproc
.LFE9258:
	.size	_ZNSt5dequeIiSaIiEE9push_backERKi, .-_ZNSt5dequeIiSaIiEE9push_backERKi
	.section	.text._ZNKSt5dequeIiSaIiEE5emptyEv,"axG",@progbits,_ZNKSt5dequeIiSaIiEE5emptyEv,comdat
	.align 2
	.weak	_ZNKSt5dequeIiSaIiEE5emptyEv
	.type	_ZNKSt5dequeIiSaIiEE5emptyEv, @function
_ZNKSt5dequeIiSaIiEE5emptyEv:
.LFB9259:
	.cfi_startproc
	pushq	%rbp
	.cfi_def_cfa_offset 16
	.cfi_offset 6, -16
	movq	%rsp, %rbp
	.cfi_def_cfa_register 6
	subq	$16, %rsp
	movq	%rdi, -8(%rbp)
	movq	-8(%rbp), %rax
	leaq	16(%rax), %rdx
	movq	-8(%rbp), %rax
	addq	$48, %rax
	movq	%rdx, %rsi
	movq	%rax, %rdi
	call	_ZSteqIiRiPiEbRKSt15_Deque_iteratorIT_T0_T1_ES8_
	leave
	.cfi_def_cfa 7, 8
	ret
	.cfi_endproc
.LFE9259:
	.size	_ZNKSt5dequeIiSaIiEE5emptyEv, .-_ZNKSt5dequeIiSaIiEE5emptyEv
	.section	.text._ZNSt5dequeIiSaIiEE5frontEv,"axG",@progbits,_ZNSt5dequeIiSaIiEE5frontEv,comdat
	.align 2
	.weak	_ZNSt5dequeIiSaIiEE5frontEv
	.type	_ZNSt5dequeIiSaIiEE5frontEv, @function
_ZNSt5dequeIiSaIiEE5frontEv:
.LFB9260:
	.cfi_startproc
	pushq	%rbp
	.cfi_def_cfa_offset 16
	.cfi_offset 6, -16
	movq	%rsp, %rbp
	.cfi_def_cfa_register 6
	subq	$48, %rsp
	movq	%rdi, -40(%rbp)
	leaq	-32(%rbp), %rax
	movq	-40(%rbp), %rdx
	movq	%rdx, %rsi
	movq	%rax, %rdi
	call	_ZNSt5dequeIiSaIiEE5beginEv
	leaq	-32(%rbp), %rax
	movq	%rax, %rdi
	call	_ZNKSt15_Deque_iteratorIiRiPiEdeEv
	leave
	.cfi_def_cfa 7, 8
	ret
	.cfi_endproc
.LFE9260:
	.size	_ZNSt5dequeIiSaIiEE5frontEv, .-_ZNSt5dequeIiSaIiEE5frontEv
	.section	.text._ZNSt5dequeIiSaIiEE9pop_frontEv,"axG",@progbits,_ZNSt5dequeIiSaIiEE9pop_frontEv,comdat
	.align 2
	.weak	_ZNSt5dequeIiSaIiEE9pop_frontEv
	.type	_ZNSt5dequeIiSaIiEE9pop_frontEv, @function
_ZNSt5dequeIiSaIiEE9pop_frontEv:
.LFB9261:
	.cfi_startproc
	pushq	%rbp
	.cfi_def_cfa_offset 16
	.cfi_offset 6, -16
	movq	%rsp, %rbp
	.cfi_def_cfa_register 6
	subq	$16, %rsp
	movq	%rdi, -8(%rbp)
	movq	-8(%rbp), %rax
	movq	16(%rax), %rdx
	movq	-8(%rbp), %rax
	movq	32(%rax), %rax
	subq	$4, %rax
	cmpq	%rax, %rdx
	je	.L135
	movq	-8(%rbp), %rax
	movq	16(%rax), %rdx
	movq	-8(%rbp), %rax
	movq	%rdx, %rsi
	movq	%rax, %rdi
	call	_ZNSt16allocator_traitsISaIiEE7destroyIiEEvRS0_PT_
	movq	-8(%rbp), %rax
	movq	16(%rax), %rax
	leaq	4(%rax), %rdx
	movq	-8(%rbp), %rax
	movq	%rdx, 16(%rax)
	jmp	.L137
.L135:
	movq	-8(%rbp), %rax
	movq	%rax, %rdi
	call	_ZNSt5dequeIiSaIiEE16_M_pop_front_auxEv
.L137:
	nop
	leave
	.cfi_def_cfa 7, 8
	ret
	.cfi_endproc
.LFE9261:
	.size	_ZNSt5dequeIiSaIiEE9pop_frontEv, .-_ZNSt5dequeIiSaIiEE9pop_frontEv
	.section	.text._ZNSt14_List_iteratorIiEC2EPNSt8__detail15_List_node_baseE,"axG",@progbits,_ZNSt14_List_iteratorIiEC5EPNSt8__detail15_List_node_baseE,comdat
	.align 2
	.weak	_ZNSt14_List_iteratorIiEC2EPNSt8__detail15_List_node_baseE
	.type	_ZNSt14_List_iteratorIiEC2EPNSt8__detail15_List_node_baseE, @function
_ZNSt14_List_iteratorIiEC2EPNSt8__detail15_List_node_baseE:
.LFB9263:
	.cfi_startproc
	pushq	%rbp
	.cfi_def_cfa_offset 16
	.cfi_offset 6, -16
	movq	%rsp, %rbp
	.cfi_def_cfa_register 6
	movq	%rdi, -8(%rbp)
	movq	%rsi, -16(%rbp)
	movq	-8(%rbp), %rax
	movq	-16(%rbp), %rdx
	movq	%rdx, (%rax)
	nop
	popq	%rbp
	.cfi_def_cfa 7, 8
	ret
	.cfi_endproc
.LFE9263:
	.size	_ZNSt14_List_iteratorIiEC2EPNSt8__detail15_List_node_baseE, .-_ZNSt14_List_iteratorIiEC2EPNSt8__detail15_List_node_baseE
	.weak	_ZNSt14_List_iteratorIiEC1EPNSt8__detail15_List_node_baseE
	.set	_ZNSt14_List_iteratorIiEC1EPNSt8__detail15_List_node_baseE,_ZNSt14_List_iteratorIiEC2EPNSt8__detail15_List_node_baseE
	.section	.text._ZNSt10_List_nodeIiE9_M_valptrEv,"axG",@progbits,_ZNSt10_List_nodeIiE9_M_valptrEv,comdat
	.align 2
	.weak	_ZNSt10_List_nodeIiE9_M_valptrEv
	.type	_ZNSt10_List_nodeIiE9_M_valptrEv, @function
_ZNSt10_List_nodeIiE9_M_valptrEv:
.LFB9265:
	.cfi_startproc
	pushq	%rbp
	.cfi_def_cfa_offset 16
	.cfi_offset 6, -16
	movq	%rsp, %rbp
	.cfi_def_cfa_register 6
	subq	$16, %rsp
	movq	%rdi, -8(%rbp)
	movq	-8(%rbp), %rax
	addq	$16, %rax
	movq	%rax, %rdi
	call	_ZN9__gnu_cxx16__aligned_membufIiE6_M_ptrEv
	leave
	.cfi_def_cfa 7, 8
	ret
	.cfi_endproc
.LFE9265:
	.size	_ZNSt10_List_nodeIiE9_M_valptrEv, .-_ZNSt10_List_nodeIiE9_M_valptrEv
	.section	.text._ZNSaISt10_List_nodeIiEEC2Ev,"axG",@progbits,_ZNSaISt10_List_nodeIiEEC5Ev,comdat
	.align 2
	.weak	_ZNSaISt10_List_nodeIiEEC2Ev
	.type	_ZNSaISt10_List_nodeIiEEC2Ev, @function
_ZNSaISt10_List_nodeIiEEC2Ev:
.LFB9267:
	.cfi_startproc
	pushq	%rbp
	.cfi_def_cfa_offset 16
	.cfi_offset 6, -16
	movq	%rsp, %rbp
	.cfi_def_cfa_register 6
	subq	$16, %rsp
	movq	%rdi, -8(%rbp)
	movq	-8(%rbp), %rax
	movq	%rax, %rdi
	call	_ZN9__gnu_cxx13new_allocatorISt10_List_nodeIiEEC2Ev
	nop
	leave
	.cfi_def_cfa 7, 8
	ret
	.cfi_endproc
.LFE9267:
	.size	_ZNSaISt10_List_nodeIiEEC2Ev, .-_ZNSaISt10_List_nodeIiEEC2Ev
	.weak	_ZNSaISt10_List_nodeIiEEC1Ev
	.set	_ZNSaISt10_List_nodeIiEEC1Ev,_ZNSaISt10_List_nodeIiEEC2Ev
	.section	.text._ZNSt7__cxx1110_List_baseIiSaIiEE8_M_clearEv,"axG",@progbits,_ZNSt7__cxx1110_List_baseIiSaIiEE8_M_clearEv,comdat
	.align 2
	.weak	_ZNSt7__cxx1110_List_baseIiSaIiEE8_M_clearEv
	.type	_ZNSt7__cxx1110_List_baseIiSaIiEE8_M_clearEv, @function
_ZNSt7__cxx1110_List_baseIiSaIiEE8_M_clearEv:
.LFB9272:
	.cfi_startproc
	pushq	%rbp
	.cfi_def_cfa_offset 16
	.cfi_offset 6, -16
	movq	%rsp, %rbp
	.cfi_def_cfa_register 6
	subq	$48, %rsp
	movq	%rdi, -40(%rbp)
	movq	-40(%rbp), %rax
	movq	(%rax), %rax
	movq	%rax, -8(%rbp)
.L144:
	movq	-40(%rbp), %rax
	cmpq	%rax, -8(%rbp)
	je	.L145
	movq	-8(%rbp), %rax
	movq	%rax, -16(%rbp)
	movq	-16(%rbp), %rax
	movq	(%rax), %rax
	movq	%rax, -8(%rbp)
	movq	-16(%rbp), %rax
	movq	%rax, %rdi
	call	_ZNSt10_List_nodeIiE9_M_valptrEv
	movq	%rax, -24(%rbp)
	movq	-40(%rbp), %rax
	movq	%rax, %rdi
	call	_ZNSt7__cxx1110_List_baseIiSaIiEE21_M_get_Node_allocatorEv
	movq	%rax, %rdx
	movq	-24(%rbp), %rax
	movq	%rax, %rsi
	movq	%rdx, %rdi
	call	_ZNSt16allocator_traitsISaISt10_List_nodeIiEEE7destroyIiEEvRS2_PT_
	movq	-16(%rbp), %rdx
	movq	-40(%rbp), %rax
	movq	%rdx, %rsi
	movq	%rax, %rdi
	call	_ZNSt7__cxx1110_List_baseIiSaIiEE11_M_put_nodeEPSt10_List_nodeIiE
	jmp	.L144
.L145:
	nop
	leave
	.cfi_def_cfa 7, 8
	ret
	.cfi_endproc
.LFE9272:
	.size	_ZNSt7__cxx1110_List_baseIiSaIiEE8_M_clearEv, .-_ZNSt7__cxx1110_List_baseIiSaIiEE8_M_clearEv
	.section	.text._ZNSaISt4pairIiiEEC2Ev,"axG",@progbits,_ZNSaISt4pairIiiEEC5Ev,comdat
	.align 2
	.weak	_ZNSaISt4pairIiiEEC2Ev
	.type	_ZNSaISt4pairIiiEEC2Ev, @function
_ZNSaISt4pairIiiEEC2Ev:
.LFB9274:
	.cfi_startproc
	pushq	%rbp
	.cfi_def_cfa_offset 16
	.cfi_offset 6, -16
	movq	%rsp, %rbp
	.cfi_def_cfa_register 6
	subq	$16, %rsp
	movq	%rdi, -8(%rbp)
	movq	-8(%rbp), %rax
	movq	%rax, %rdi
	call	_ZN9__gnu_cxx13new_allocatorISt4pairIiiEEC2Ev
	nop
	leave
	.cfi_def_cfa 7, 8
	ret
	.cfi_endproc
.LFE9274:
	.size	_ZNSaISt4pairIiiEEC2Ev, .-_ZNSaISt4pairIiiEEC2Ev
	.weak	_ZNSaISt4pairIiiEEC1Ev
	.set	_ZNSaISt4pairIiiEEC1Ev,_ZNSaISt4pairIiiEEC2Ev
	.section	.text._ZNSt12_Vector_baseISt4pairIiiESaIS1_EE17_Vector_impl_dataC2Ev,"axG",@progbits,_ZNSt12_Vector_baseISt4pairIiiESaIS1_EE17_Vector_impl_dataC5Ev,comdat
	.align 2
	.weak	_ZNSt12_Vector_baseISt4pairIiiESaIS1_EE17_Vector_impl_dataC2Ev
	.type	_ZNSt12_Vector_baseISt4pairIiiESaIS1_EE17_Vector_impl_dataC2Ev, @function
_ZNSt12_Vector_baseISt4pairIiiESaIS1_EE17_Vector_impl_dataC2Ev:
.LFB9277:
	.cfi_startproc
	pushq	%rbp
	.cfi_def_cfa_offset 16
	.cfi_offset 6, -16
	movq	%rsp, %rbp
	.cfi_def_cfa_register 6
	movq	%rdi, -8(%rbp)
	movq	-8(%rbp), %rax
	movq	$0, (%rax)
	movq	-8(%rbp), %rax
	movq	$0, 8(%rax)
	movq	-8(%rbp), %rax
	movq	$0, 16(%rax)
	nop
	popq	%rbp
	.cfi_def_cfa 7, 8
	ret
	.cfi_endproc
.LFE9277:
	.size	_ZNSt12_Vector_baseISt4pairIiiESaIS1_EE17_Vector_impl_dataC2Ev, .-_ZNSt12_Vector_baseISt4pairIiiESaIS1_EE17_Vector_impl_dataC2Ev
	.weak	_ZNSt12_Vector_baseISt4pairIiiESaIS1_EE17_Vector_impl_dataC1Ev
	.set	_ZNSt12_Vector_baseISt4pairIiiESaIS1_EE17_Vector_impl_dataC1Ev,_ZNSt12_Vector_baseISt4pairIiiESaIS1_EE17_Vector_impl_dataC2Ev
	.section	.text._ZN9__gnu_cxx13new_allocatorISt4pairIiiEED2Ev,"axG",@progbits,_ZN9__gnu_cxx13new_allocatorISt4pairIiiEED5Ev,comdat
	.align 2
	.weak	_ZN9__gnu_cxx13new_allocatorISt4pairIiiEED2Ev
	.type	_ZN9__gnu_cxx13new_allocatorISt4pairIiiEED2Ev, @function
_ZN9__gnu_cxx13new_allocatorISt4pairIiiEED2Ev:
.LFB9280:
	.cfi_startproc
	pushq	%rbp
	.cfi_def_cfa_offset 16
	.cfi_offset 6, -16
	movq	%rsp, %rbp
	.cfi_def_cfa_register 6
	movq	%rdi, -8(%rbp)
	nop
	popq	%rbp
	.cfi_def_cfa 7, 8
	ret
	.cfi_endproc
.LFE9280:
	.size	_ZN9__gnu_cxx13new_allocatorISt4pairIiiEED2Ev, .-_ZN9__gnu_cxx13new_allocatorISt4pairIiiEED2Ev
	.weak	_ZN9__gnu_cxx13new_allocatorISt4pairIiiEED1Ev
	.set	_ZN9__gnu_cxx13new_allocatorISt4pairIiiEED1Ev,_ZN9__gnu_cxx13new_allocatorISt4pairIiiEED2Ev
	.section	.text._ZNSt12_Vector_baseISt4pairIiiESaIS1_EE13_M_deallocateEPS1_m,"axG",@progbits,_ZNSt12_Vector_baseISt4pairIiiESaIS1_EE13_M_deallocateEPS1_m,comdat
	.align 2
	.weak	_ZNSt12_Vector_baseISt4pairIiiESaIS1_EE13_M_deallocateEPS1_m
	.type	_ZNSt12_Vector_baseISt4pairIiiESaIS1_EE13_M_deallocateEPS1_m, @function
_ZNSt12_Vector_baseISt4pairIiiESaIS1_EE13_M_deallocateEPS1_m:
.LFB9282:
	.cfi_startproc
	pushq	%rbp
	.cfi_def_cfa_offset 16
	.cfi_offset 6, -16
	movq	%rsp, %rbp
	.cfi_def_cfa_register 6
	subq	$32, %rsp
	movq	%rdi, -8(%rbp)
	movq	%rsi, -16(%rbp)
	movq	%rdx, -24(%rbp)
	cmpq	$0, -16(%rbp)
	je	.L151
	movq	-8(%rbp), %rax
	movq	-24(%rbp), %rdx
	movq	-16(%rbp), %rcx
	movq	%rcx, %rsi
	movq	%rax, %rdi
	call	_ZNSt16allocator_traitsISaISt4pairIiiEEE10deallocateERS2_PS1_m
.L151:
	nop
	leave
	.cfi_def_cfa 7, 8
	ret
	.cfi_endproc
.LFE9282:
	.size	_ZNSt12_Vector_baseISt4pairIiiESaIS1_EE13_M_deallocateEPS1_m, .-_ZNSt12_Vector_baseISt4pairIiiESaIS1_EE13_M_deallocateEPS1_m
	.section	.text._ZNSt12_Vector_baseISt4pairIiiESaIS1_EE19_M_get_Tp_allocatorEv,"axG",@progbits,_ZNSt12_Vector_baseISt4pairIiiESaIS1_EE19_M_get_Tp_allocatorEv,comdat
	.align 2
	.weak	_ZNSt12_Vector_baseISt4pairIiiESaIS1_EE19_M_get_Tp_allocatorEv
	.type	_ZNSt12_Vector_baseISt4pairIiiESaIS1_EE19_M_get_Tp_allocatorEv, @function
_ZNSt12_Vector_baseISt4pairIiiESaIS1_EE19_M_get_Tp_allocatorEv:
.LFB9283:
	.cfi_startproc
	pushq	%rbp
	.cfi_def_cfa_offset 16
	.cfi_offset 6, -16
	movq	%rsp, %rbp
	.cfi_def_cfa_register 6
	movq	%rdi, -8(%rbp)
	movq	-8(%rbp), %rax
	popq	%rbp
	.cfi_def_cfa 7, 8
	ret
	.cfi_endproc
.LFE9283:
	.size	_ZNSt12_Vector_baseISt4pairIiiESaIS1_EE19_M_get_Tp_allocatorEv, .-_ZNSt12_Vector_baseISt4pairIiiESaIS1_EE19_M_get_Tp_allocatorEv
	.section	.text._ZSt8_DestroyIPSt4pairIiiES1_EvT_S3_RSaIT0_E,"axG",@progbits,_ZSt8_DestroyIPSt4pairIiiES1_EvT_S3_RSaIT0_E,comdat
	.weak	_ZSt8_DestroyIPSt4pairIiiES1_EvT_S3_RSaIT0_E
	.type	_ZSt8_DestroyIPSt4pairIiiES1_EvT_S3_RSaIT0_E, @function
_ZSt8_DestroyIPSt4pairIiiES1_EvT_S3_RSaIT0_E:
.LFB9284:
	.cfi_startproc
	pushq	%rbp
	.cfi_def_cfa_offset 16
	.cfi_offset 6, -16
	movq	%rsp, %rbp
	.cfi_def_cfa_register 6
	subq	$32, %rsp
	movq	%rdi, -8(%rbp)
	movq	%rsi, -16(%rbp)
	movq	%rdx, -24(%rbp)
	movq	-16(%rbp), %rdx
	movq	-8(%rbp), %rax
	movq	%rdx, %rsi
	movq	%rax, %rdi
	call	_ZSt8_DestroyIPSt4pairIiiEEvT_S3_
	nop
	leave
	.cfi_def_cfa 7, 8
	ret
	.cfi_endproc
.LFE9284:
	.size	_ZSt8_DestroyIPSt4pairIiiES1_EvT_S3_RSaIT0_E, .-_ZSt8_DestroyIPSt4pairIiiES1_EvT_S3_RSaIT0_E
	.section	.text._ZSt7forwardIRiEOT_RNSt16remove_referenceIS1_E4typeE,"axG",@progbits,_ZSt7forwardIRiEOT_RNSt16remove_referenceIS1_E4typeE,comdat
	.weak	_ZSt7forwardIRiEOT_RNSt16remove_referenceIS1_E4typeE
	.type	_ZSt7forwardIRiEOT_RNSt16remove_referenceIS1_E4typeE, @function
_ZSt7forwardIRiEOT_RNSt16remove_referenceIS1_E4typeE:
.LFB9285:
	.cfi_startproc
	pushq	%rbp
	.cfi_def_cfa_offset 16
	.cfi_offset 6, -16
	movq	%rsp, %rbp
	.cfi_def_cfa_register 6
	movq	%rdi, -8(%rbp)
	movq	-8(%rbp), %rax
	popq	%rbp
	.cfi_def_cfa 7, 8
	ret
	.cfi_endproc
.LFE9285:
	.size	_ZSt7forwardIRiEOT_RNSt16remove_referenceIS1_E4typeE, .-_ZSt7forwardIRiEOT_RNSt16remove_referenceIS1_E4typeE
	.section	.text._ZNSt4pairIiiEC2IRiS2_Lb1EEEOT_OT0_,"axG",@progbits,_ZNSt4pairIiiEC5IRiS2_Lb1EEEOT_OT0_,comdat
	.align 2
	.weak	_ZNSt4pairIiiEC2IRiS2_Lb1EEEOT_OT0_
	.type	_ZNSt4pairIiiEC2IRiS2_Lb1EEEOT_OT0_, @function
_ZNSt4pairIiiEC2IRiS2_Lb1EEEOT_OT0_:
.LFB9287:
	.cfi_startproc
	pushq	%rbp
	.cfi_def_cfa_offset 16
	.cfi_offset 6, -16
	movq	%rsp, %rbp
	.cfi_def_cfa_register 6
	subq	$32, %rsp
	movq	%rdi, -8(%rbp)
	movq	%rsi, -16(%rbp)
	movq	%rdx, -24(%rbp)
	movq	-16(%rbp), %rax
	movq	%rax, %rdi
	call	_ZSt7forwardIRiEOT_RNSt16remove_referenceIS1_E4typeE
	movl	(%rax), %edx
	movq	-8(%rbp), %rax
	movl	%edx, (%rax)
	movq	-24(%rbp), %rax
	movq	%rax, %rdi
	call	_ZSt7forwardIRiEOT_RNSt16remove_referenceIS1_E4typeE
	movl	(%rax), %edx
	movq	-8(%rbp), %rax
	movl	%edx, 4(%rax)
	nop
	leave
	.cfi_def_cfa 7, 8
	ret
	.cfi_endproc
.LFE9287:
	.size	_ZNSt4pairIiiEC2IRiS2_Lb1EEEOT_OT0_, .-_ZNSt4pairIiiEC2IRiS2_Lb1EEEOT_OT0_
	.weak	_ZNSt4pairIiiEC1IRiS2_Lb1EEEOT_OT0_
	.set	_ZNSt4pairIiiEC1IRiS2_Lb1EEEOT_OT0_,_ZNSt4pairIiiEC2IRiS2_Lb1EEEOT_OT0_
	.section	.text._ZSt4moveIRSt4pairIiiEEONSt16remove_referenceIT_E4typeEOS4_,"axG",@progbits,_ZSt4moveIRSt4pairIiiEEONSt16remove_referenceIT_E4typeEOS4_,comdat
	.weak	_ZSt4moveIRSt4pairIiiEEONSt16remove_referenceIT_E4typeEOS4_
	.type	_ZSt4moveIRSt4pairIiiEEONSt16remove_referenceIT_E4typeEOS4_, @function
_ZSt4moveIRSt4pairIiiEEONSt16remove_referenceIT_E4typeEOS4_:
.LFB9289:
	.cfi_startproc
	pushq	%rbp
	.cfi_def_cfa_offset 16
	.cfi_offset 6, -16
	movq	%rsp, %rbp
	.cfi_def_cfa_register 6
	movq	%rdi, -8(%rbp)
	movq	-8(%rbp), %rax
	popq	%rbp
	.cfi_def_cfa 7, 8
	ret
	.cfi_endproc
.LFE9289:
	.size	_ZSt4moveIRSt4pairIiiEEONSt16remove_referenceIT_E4typeEOS4_, .-_ZSt4moveIRSt4pairIiiEEONSt16remove_referenceIT_E4typeEOS4_
	.section	.text._ZNSt6vectorISt4pairIiiESaIS1_EE12emplace_backIJS1_EEEvDpOT_,"axG",@progbits,_ZNSt6vectorISt4pairIiiESaIS1_EE12emplace_backIJS1_EEEvDpOT_,comdat
	.align 2
	.weak	_ZNSt6vectorISt4pairIiiESaIS1_EE12emplace_backIJS1_EEEvDpOT_
	.type	_ZNSt6vectorISt4pairIiiESaIS1_EE12emplace_backIJS1_EEEvDpOT_, @function
_ZNSt6vectorISt4pairIiiESaIS1_EE12emplace_backIJS1_EEEvDpOT_:
.LFB9290:
	.cfi_startproc
	pushq	%rbp
	.cfi_def_cfa_offset 16
	.cfi_offset 6, -16
	movq	%rsp, %rbp
	.cfi_def_cfa_register 6
	pushq	%rbx
	subq	$24, %rsp
	.cfi_offset 3, -24
	movq	%rdi, -24(%rbp)
	movq	%rsi, -32(%rbp)
	movq	-24(%rbp), %rax
	movq	8(%rax), %rdx
	movq	-24(%rbp), %rax
	movq	16(%rax), %rax
	cmpq	%rax, %rdx
	je	.L161
	movq	-32(%rbp), %rax
	movq	%rax, %rdi
	call	_ZSt7forwardISt4pairIiiEEOT_RNSt16remove_referenceIS2_E4typeE
	movq	%rax, %rdx
	movq	-24(%rbp), %rax
	movq	8(%rax), %rcx
	movq	-24(%rbp), %rax
	movq	%rcx, %rsi
	movq	%rax, %rdi
	call	_ZNSt16allocator_traitsISaISt4pairIiiEEE9constructIS1_JS1_EEEvRS2_PT_DpOT0_
	movq	-24(%rbp), %rax
	movq	8(%rax), %rax
	leaq	8(%rax), %rdx
	movq	-24(%rbp), %rax
	movq	%rdx, 8(%rax)
	jmp	.L163
.L161:
	movq	-32(%rbp), %rax
	movq	%rax, %rdi
	call	_ZSt7forwardISt4pairIiiEEOT_RNSt16remove_referenceIS2_E4typeE
	movq	%rax, %rbx
	movq	-24(%rbp), %rax
	movq	%rax, %rdi
	call	_ZNSt6vectorISt4pairIiiESaIS1_EE3endEv
	movq	%rax, %rcx
	movq	-24(%rbp), %rax
	movq	%rbx, %rdx
	movq	%rcx, %rsi
	movq	%rax, %rdi
	call	_ZNSt6vectorISt4pairIiiESaIS1_EE17_M_realloc_insertIJS1_EEEvN9__gnu_cxx17__normal_iteratorIPS1_S3_EEDpOT_
.L163:
	nop
	addq	$24, %rsp
	popq	%rbx
	popq	%rbp
	.cfi_def_cfa 7, 8
	ret
	.cfi_endproc
.LFE9290:
	.size	_ZNSt6vectorISt4pairIiiESaIS1_EE12emplace_backIJS1_EEEvDpOT_, .-_ZNSt6vectorISt4pairIiiESaIS1_EE12emplace_backIJS1_EEEvDpOT_
	.section	.text._ZN9__gnu_cxx17__normal_iteratorIPSt4pairIiiESt6vectorIS2_SaIS2_EEEC2ERKS3_,"axG",@progbits,_ZN9__gnu_cxx17__normal_iteratorIPSt4pairIiiESt6vectorIS2_SaIS2_EEEC5ERKS3_,comdat
	.align 2
	.weak	_ZN9__gnu_cxx17__normal_iteratorIPSt4pairIiiESt6vectorIS2_SaIS2_EEEC2ERKS3_
	.type	_ZN9__gnu_cxx17__normal_iteratorIPSt4pairIiiESt6vectorIS2_SaIS2_EEEC2ERKS3_, @function
_ZN9__gnu_cxx17__normal_iteratorIPSt4pairIiiESt6vectorIS2_SaIS2_EEEC2ERKS3_:
.LFB9292:
	.cfi_startproc
	pushq	%rbp
	.cfi_def_cfa_offset 16
	.cfi_offset 6, -16
	movq	%rsp, %rbp
	.cfi_def_cfa_register 6
	movq	%rdi, -8(%rbp)
	movq	%rsi, -16(%rbp)
	movq	-16(%rbp), %rax
	movq	(%rax), %rdx
	movq	-8(%rbp), %rax
	movq	%rdx, (%rax)
	nop
	popq	%rbp
	.cfi_def_cfa 7, 8
	ret
	.cfi_endproc
.LFE9292:
	.size	_ZN9__gnu_cxx17__normal_iteratorIPSt4pairIiiESt6vectorIS2_SaIS2_EEEC2ERKS3_, .-_ZN9__gnu_cxx17__normal_iteratorIPSt4pairIiiESt6vectorIS2_SaIS2_EEEC2ERKS3_
	.weak	_ZN9__gnu_cxx17__normal_iteratorIPSt4pairIiiESt6vectorIS2_SaIS2_EEEC1ERKS3_
	.set	_ZN9__gnu_cxx17__normal_iteratorIPSt4pairIiiESt6vectorIS2_SaIS2_EEEC1ERKS3_,_ZN9__gnu_cxx17__normal_iteratorIPSt4pairIiiESt6vectorIS2_SaIS2_EEEC2ERKS3_
	.section	.text._ZSt6__sortIN9__gnu_cxx17__normal_iteratorIPSt4pairIiiESt6vectorIS3_SaIS3_EEEENS0_5__ops15_Iter_less_iterEEvT_SB_T0_,"axG",@progbits,_ZSt6__sortIN9__gnu_cxx17__normal_iteratorIPSt4pairIiiESt6vectorIS3_SaIS3_EEEENS0_5__ops15_Iter_less_iterEEvT_SB_T0_,comdat
	.weak	_ZSt6__sortIN9__gnu_cxx17__normal_iteratorIPSt4pairIiiESt6vectorIS3_SaIS3_EEEENS0_5__ops15_Iter_less_iterEEvT_SB_T0_
	.type	_ZSt6__sortIN9__gnu_cxx17__normal_iteratorIPSt4pairIiiESt6vectorIS3_SaIS3_EEEENS0_5__ops15_Iter_less_iterEEvT_SB_T0_, @function
_ZSt6__sortIN9__gnu_cxx17__normal_iteratorIPSt4pairIiiESt6vectorIS3_SaIS3_EEEENS0_5__ops15_Iter_less_iterEEvT_SB_T0_:
.LFB9294:
	.cfi_startproc
	pushq	%rbp
	.cfi_def_cfa_offset 16
	.cfi_offset 6, -16
	movq	%rsp, %rbp
	.cfi_def_cfa_register 6
	subq	$16, %rsp
	movq	%rdi, -8(%rbp)
	movq	%rsi, -16(%rbp)
	leaq	-16(%rbp), %rdx
	leaq	-8(%rbp), %rax
	movq	%rdx, %rsi
	movq	%rax, %rdi
	call	_ZN9__gnu_cxxneIPSt4pairIiiESt6vectorIS2_SaIS2_EEEEbRKNS_17__normal_iteratorIT_T0_EESC_
	testb	%al, %al
	je	.L167
	leaq	-8(%rbp), %rdx
	leaq	-16(%rbp), %rax
	movq	%rdx, %rsi
	movq	%rax, %rdi
	call	_ZN9__gnu_cxxmiIPSt4pairIiiESt6vectorIS2_SaIS2_EEEENS_17__normal_iteratorIT_T0_E15difference_typeERKSA_SD_
	movq	%rax, %rdi
	call	_ZSt4__lgl
	leaq	(%rax,%rax), %rdx
	movq	-16(%rbp), %rcx
	movq	-8(%rbp), %rax
	movq	%rcx, %rsi
	movq	%rax, %rdi
	call	_ZSt16__introsort_loopIN9__gnu_cxx17__normal_iteratorIPSt4pairIiiESt6vectorIS3_SaIS3_EEEElNS0_5__ops15_Iter_less_iterEEvT_SB_T0_T1_
	movq	-16(%rbp), %rdx
	movq	-8(%rbp), %rax
	movq	%rdx, %rsi
	movq	%rax, %rdi
	call	_ZSt22__final_insertion_sortIN9__gnu_cxx17__normal_iteratorIPSt4pairIiiESt6vectorIS3_SaIS3_EEEENS0_5__ops15_Iter_less_iterEEvT_SB_T0_
.L167:
	nop
	leave
	.cfi_def_cfa 7, 8
	ret
	.cfi_endproc
.LFE9294:
	.size	_ZSt6__sortIN9__gnu_cxx17__normal_iteratorIPSt4pairIiiESt6vectorIS3_SaIS3_EEEENS0_5__ops15_Iter_less_iterEEvT_SB_T0_, .-_ZSt6__sortIN9__gnu_cxx17__normal_iteratorIPSt4pairIiiESt6vectorIS3_SaIS3_EEEENS0_5__ops15_Iter_less_iterEEvT_SB_T0_
	.section	.text._ZNSt7__cxx1110_List_baseIiSaIiEE7_M_initEv,"axG",@progbits,_ZNSt7__cxx1110_List_baseIiSaIiEE7_M_initEv,comdat
	.align 2
	.weak	_ZNSt7__cxx1110_List_baseIiSaIiEE7_M_initEv
	.type	_ZNSt7__cxx1110_List_baseIiSaIiEE7_M_initEv, @function
_ZNSt7__cxx1110_List_baseIiSaIiEE7_M_initEv:
.LFB9295:
	.cfi_startproc
	pushq	%rbp
	.cfi_def_cfa_offset 16
	.cfi_offset 6, -16
	movq	%rsp, %rbp
	.cfi_def_cfa_register 6
	subq	$16, %rsp
	movq	%rdi, -8(%rbp)
	movq	-8(%rbp), %rax
	movq	%rax, %rdi
	call	_ZNSt8__detail17_List_node_header7_M_initEv
	nop
	leave
	.cfi_def_cfa 7, 8
	ret
	.cfi_endproc
.LFE9295:
	.size	_ZNSt7__cxx1110_List_baseIiSaIiEE7_M_initEv, .-_ZNSt7__cxx1110_List_baseIiSaIiEE7_M_initEv
	.section	.text._ZNSt16reverse_iteratorIN9__gnu_cxx17__normal_iteratorIPSt4pairIiiESt6vectorIS3_SaIS3_EEEEEC2ES8_,"axG",@progbits,_ZNSt16reverse_iteratorIN9__gnu_cxx17__normal_iteratorIPSt4pairIiiESt6vectorIS3_SaIS3_EEEEEC5ES8_,comdat
	.align 2
	.weak	_ZNSt16reverse_iteratorIN9__gnu_cxx17__normal_iteratorIPSt4pairIiiESt6vectorIS3_SaIS3_EEEEEC2ES8_
	.type	_ZNSt16reverse_iteratorIN9__gnu_cxx17__normal_iteratorIPSt4pairIiiESt6vectorIS3_SaIS3_EEEEEC2ES8_, @function
_ZNSt16reverse_iteratorIN9__gnu_cxx17__normal_iteratorIPSt4pairIiiESt6vectorIS3_SaIS3_EEEEEC2ES8_:
.LFB9297:
	.cfi_startproc
	pushq	%rbp
	.cfi_def_cfa_offset 16
	.cfi_offset 6, -16
	movq	%rsp, %rbp
	.cfi_def_cfa_register 6
	movq	%rdi, -8(%rbp)
	movq	%rsi, -16(%rbp)
	movq	-8(%rbp), %rax
	movq	-16(%rbp), %rdx
	movq	%rdx, (%rax)
	nop
	popq	%rbp
	.cfi_def_cfa 7, 8
	ret
	.cfi_endproc
.LFE9297:
	.size	_ZNSt16reverse_iteratorIN9__gnu_cxx17__normal_iteratorIPSt4pairIiiESt6vectorIS3_SaIS3_EEEEEC2ES8_, .-_ZNSt16reverse_iteratorIN9__gnu_cxx17__normal_iteratorIPSt4pairIiiESt6vectorIS3_SaIS3_EEEEEC2ES8_
	.weak	_ZNSt16reverse_iteratorIN9__gnu_cxx17__normal_iteratorIPSt4pairIiiESt6vectorIS3_SaIS3_EEEEEC1ES8_
	.set	_ZNSt16reverse_iteratorIN9__gnu_cxx17__normal_iteratorIPSt4pairIiiESt6vectorIS3_SaIS3_EEEEEC1ES8_,_ZNSt16reverse_iteratorIN9__gnu_cxx17__normal_iteratorIPSt4pairIiiESt6vectorIS3_SaIS3_EEEEEC2ES8_
	.section	.text._ZSteqIN9__gnu_cxx17__normal_iteratorIPSt4pairIiiESt6vectorIS3_SaIS3_EEEEEbRKSt16reverse_iteratorIT_ESD_,"axG",@progbits,_ZSteqIN9__gnu_cxx17__normal_iteratorIPSt4pairIiiESt6vectorIS3_SaIS3_EEEEEbRKSt16reverse_iteratorIT_ESD_,comdat
	.weak	_ZSteqIN9__gnu_cxx17__normal_iteratorIPSt4pairIiiESt6vectorIS3_SaIS3_EEEEEbRKSt16reverse_iteratorIT_ESD_
	.type	_ZSteqIN9__gnu_cxx17__normal_iteratorIPSt4pairIiiESt6vectorIS3_SaIS3_EEEEEbRKSt16reverse_iteratorIT_ESD_, @function
_ZSteqIN9__gnu_cxx17__normal_iteratorIPSt4pairIiiESt6vectorIS3_SaIS3_EEEEEbRKSt16reverse_iteratorIT_ESD_:
.LFB9299:
	.cfi_startproc
	pushq	%rbp
	.cfi_def_cfa_offset 16
	.cfi_offset 6, -16
	movq	%rsp, %rbp
	.cfi_def_cfa_register 6
	subq	$32, %rsp
	movq	%rdi, -24(%rbp)
	movq	%rsi, -32(%rbp)
	movq	-32(%rbp), %rax
	movq	%rax, %rdi
	call	_ZNKSt16reverse_iteratorIN9__gnu_cxx17__normal_iteratorIPSt4pairIiiESt6vectorIS3_SaIS3_EEEEE4baseEv
	movq	%rax, -16(%rbp)
	movq	-24(%rbp), %rax
	movq	%rax, %rdi
	call	_ZNKSt16reverse_iteratorIN9__gnu_cxx17__normal_iteratorIPSt4pairIiiESt6vectorIS3_SaIS3_EEEEE4baseEv
	movq	%rax, -8(%rbp)
	leaq	-16(%rbp), %rdx
	leaq	-8(%rbp), %rax
	movq	%rdx, %rsi
	movq	%rax, %rdi
	call	_ZN9__gnu_cxxeqIPSt4pairIiiESt6vectorIS2_SaIS2_EEEEbRKNS_17__normal_iteratorIT_T0_EESC_
	leave
	.cfi_def_cfa 7, 8
	ret
	.cfi_endproc
.LFE9299:
	.size	_ZSteqIN9__gnu_cxx17__normal_iteratorIPSt4pairIiiESt6vectorIS3_SaIS3_EEEEEbRKSt16reverse_iteratorIT_ESD_, .-_ZSteqIN9__gnu_cxx17__normal_iteratorIPSt4pairIiiESt6vectorIS3_SaIS3_EEEEEbRKSt16reverse_iteratorIT_ESD_
	.section	.text._ZN9__gnu_cxx17__normal_iteratorIPSt4pairIiiESt6vectorIS2_SaIS2_EEEmmEv,"axG",@progbits,_ZN9__gnu_cxx17__normal_iteratorIPSt4pairIiiESt6vectorIS2_SaIS2_EEEmmEv,comdat
	.align 2
	.weak	_ZN9__gnu_cxx17__normal_iteratorIPSt4pairIiiESt6vectorIS2_SaIS2_EEEmmEv
	.type	_ZN9__gnu_cxx17__normal_iteratorIPSt4pairIiiESt6vectorIS2_SaIS2_EEEmmEv, @function
_ZN9__gnu_cxx17__normal_iteratorIPSt4pairIiiESt6vectorIS2_SaIS2_EEEmmEv:
.LFB9300:
	.cfi_startproc
	pushq	%rbp
	.cfi_def_cfa_offset 16
	.cfi_offset 6, -16
	movq	%rsp, %rbp
	.cfi_def_cfa_register 6
	movq	%rdi, -8(%rbp)
	movq	-8(%rbp), %rax
	movq	(%rax), %rax
	leaq	-8(%rax), %rdx
	movq	-8(%rbp), %rax
	movq	%rdx, (%rax)
	movq	-8(%rbp), %rax
	popq	%rbp
	.cfi_def_cfa 7, 8
	ret
	.cfi_endproc
.LFE9300:
	.size	_ZN9__gnu_cxx17__normal_iteratorIPSt4pairIiiESt6vectorIS2_SaIS2_EEEmmEv, .-_ZN9__gnu_cxx17__normal_iteratorIPSt4pairIiiESt6vectorIS2_SaIS2_EEEmmEv
	.section	.text._ZNK9__gnu_cxx17__normal_iteratorIPSt4pairIiiESt6vectorIS2_SaIS2_EEEdeEv,"axG",@progbits,_ZNK9__gnu_cxx17__normal_iteratorIPSt4pairIiiESt6vectorIS2_SaIS2_EEEdeEv,comdat
	.align 2
	.weak	_ZNK9__gnu_cxx17__normal_iteratorIPSt4pairIiiESt6vectorIS2_SaIS2_EEEdeEv
	.type	_ZNK9__gnu_cxx17__normal_iteratorIPSt4pairIiiESt6vectorIS2_SaIS2_EEEdeEv, @function
_ZNK9__gnu_cxx17__normal_iteratorIPSt4pairIiiESt6vectorIS2_SaIS2_EEEdeEv:
.LFB9301:
	.cfi_startproc
	pushq	%rbp
	.cfi_def_cfa_offset 16
	.cfi_offset 6, -16
	movq	%rsp, %rbp
	.cfi_def_cfa_register 6
	movq	%rdi, -8(%rbp)
	movq	-8(%rbp), %rax
	movq	(%rax), %rax
	popq	%rbp
	.cfi_def_cfa 7, 8
	ret
	.cfi_endproc
.LFE9301:
	.size	_ZNK9__gnu_cxx17__normal_iteratorIPSt4pairIiiESt6vectorIS2_SaIS2_EEEdeEv, .-_ZNK9__gnu_cxx17__normal_iteratorIPSt4pairIiiESt6vectorIS2_SaIS2_EEEdeEv
	.section	.text._ZNSt6vectorISt4pairIiiESaIS1_EE15_M_erase_at_endEPS1_,"axG",@progbits,_ZNSt6vectorISt4pairIiiESaIS1_EE15_M_erase_at_endEPS1_,comdat
	.align 2
	.weak	_ZNSt6vectorISt4pairIiiESaIS1_EE15_M_erase_at_endEPS1_
	.type	_ZNSt6vectorISt4pairIiiESaIS1_EE15_M_erase_at_endEPS1_, @function
_ZNSt6vectorISt4pairIiiESaIS1_EE15_M_erase_at_endEPS1_:
.LFB9302:
	.cfi_startproc
	.cfi_personality 0x9b,DW.ref.__gxx_personality_v0
	.cfi_lsda 0x1b,.LLSDA9302
	pushq	%rbp
	.cfi_def_cfa_offset 16
	.cfi_offset 6, -16
	movq	%rsp, %rbp
	.cfi_def_cfa_register 6
	subq	$32, %rsp
	movq	%rdi, -24(%rbp)
	movq	%rsi, -32(%rbp)
	movq	-24(%rbp), %rax
	movq	8(%rax), %rax
	subq	-32(%rbp), %rax
	sarq	$3, %rax
	movq	%rax, -8(%rbp)
	cmpq	$0, -8(%rbp)
	je	.L178
	movq	-24(%rbp), %rax
	movq	%rax, %rdi
	call	_ZNSt12_Vector_baseISt4pairIiiESaIS1_EE19_M_get_Tp_allocatorEv
	movq	%rax, %rdx
	movq	-24(%rbp), %rax
	movq	8(%rax), %rcx
	movq	-32(%rbp), %rax
	movq	%rcx, %rsi
	movq	%rax, %rdi
	call	_ZSt8_DestroyIPSt4pairIiiES1_EvT_S3_RSaIT0_E
	movq	-24(%rbp), %rax
	movq	-32(%rbp), %rdx
	movq	%rdx, 8(%rax)
.L178:
	nop
	leave
	.cfi_def_cfa 7, 8
	ret
	.cfi_endproc
.LFE9302:
	.section	.gcc_except_table
.LLSDA9302:
	.byte	0xff
	.byte	0xff
	.byte	0x1
	.uleb128 .LLSDACSE9302-.LLSDACSB9302
.LLSDACSB9302:
.LLSDACSE9302:
	.section	.text._ZNSt6vectorISt4pairIiiESaIS1_EE15_M_erase_at_endEPS1_,"axG",@progbits,_ZNSt6vectorISt4pairIiiESaIS1_EE15_M_erase_at_endEPS1_,comdat
	.size	_ZNSt6vectorISt4pairIiiESaIS1_EE15_M_erase_at_endEPS1_, .-_ZNSt6vectorISt4pairIiiESaIS1_EE15_M_erase_at_endEPS1_
	.section	.text._ZSt7forwardIRKiEOT_RNSt16remove_referenceIS2_E4typeE,"axG",@progbits,_ZSt7forwardIRKiEOT_RNSt16remove_referenceIS2_E4typeE,comdat
	.weak	_ZSt7forwardIRKiEOT_RNSt16remove_referenceIS2_E4typeE
	.type	_ZSt7forwardIRKiEOT_RNSt16remove_referenceIS2_E4typeE, @function
_ZSt7forwardIRKiEOT_RNSt16remove_referenceIS2_E4typeE:
.LFB9443:
	.cfi_startproc
	pushq	%rbp
	.cfi_def_cfa_offset 16
	.cfi_offset 6, -16
	movq	%rsp, %rbp
	.cfi_def_cfa_register 6
	movq	%rdi, -8(%rbp)
	movq	-8(%rbp), %rax
	popq	%rbp
	.cfi_def_cfa 7, 8
	ret
	.cfi_endproc
.LFE9443:
	.size	_ZSt7forwardIRKiEOT_RNSt16remove_referenceIS2_E4typeE, .-_ZSt7forwardIRKiEOT_RNSt16remove_referenceIS2_E4typeE
	.section	.text._ZNSt7__cxx114listIiSaIiEE14_M_create_nodeIJRKiEEEPSt10_List_nodeIiEDpOT_,"axG",@progbits,_ZNSt7__cxx114listIiSaIiEE14_M_create_nodeIJRKiEEEPSt10_List_nodeIiEDpOT_,comdat
	.align 2
	.weak	_ZNSt7__cxx114listIiSaIiEE14_M_create_nodeIJRKiEEEPSt10_List_nodeIiEDpOT_
	.type	_ZNSt7__cxx114listIiSaIiEE14_M_create_nodeIJRKiEEEPSt10_List_nodeIiEDpOT_, @function
_ZNSt7__cxx114listIiSaIiEE14_M_create_nodeIJRKiEEEPSt10_List_nodeIiEDpOT_:
.LFB9444:
	.cfi_startproc
	pushq	%rbp
	.cfi_def_cfa_offset 16
	.cfi_offset 6, -16
	movq	%rsp, %rbp
	.cfi_def_cfa_register 6
	pushq	%rbx
	subq	$56, %rsp
	.cfi_offset 3, -24
	movq	%rdi, -56(%rbp)
	movq	%rsi, -64(%rbp)
	movq	-56(%rbp), %rax
	movq	%rax, %rdi
	call	_ZNSt7__cxx1110_List_baseIiSaIiEE11_M_get_nodeEv
	movq	%rax, -24(%rbp)
	movq	-56(%rbp), %rax
	movq	%rax, %rdi
	call	_ZNSt7__cxx1110_List_baseIiSaIiEE21_M_get_Node_allocatorEv
	movq	%rax, -32(%rbp)
	movq	-24(%rbp), %rdx
	movq	-32(%rbp), %rcx
	leaq	-48(%rbp), %rax
	movq	%rcx, %rsi
	movq	%rax, %rdi
	call	_ZNSt15__allocated_ptrISaISt10_List_nodeIiEEEC1ERS2_PS1_
	movq	-64(%rbp), %rax
	movq	%rax, %rdi
	call	_ZSt7forwardIRKiEOT_RNSt16remove_referenceIS2_E4typeE
	movq	%rax, %rbx
	movq	-24(%rbp), %rax
	movq	%rax, %rdi
	call	_ZNSt10_List_nodeIiE9_M_valptrEv
	movq	%rax, %rcx
	movq	-32(%rbp), %rax
	movq	%rbx, %rdx
	movq	%rcx, %rsi
	movq	%rax, %rdi
	call	_ZNSt16allocator_traitsISaISt10_List_nodeIiEEE9constructIiJRKiEEEvRS2_PT_DpOT0_
	leaq	-48(%rbp), %rax
	movl	$0, %esi
	movq	%rax, %rdi
	call	_ZNSt15__allocated_ptrISaISt10_List_nodeIiEEEaSEDn
	movq	-24(%rbp), %rbx
	leaq	-48(%rbp), %rax
	movq	%rax, %rdi
	call	_ZNSt15__allocated_ptrISaISt10_List_nodeIiEEED1Ev
	movq	%rbx, %rax
	addq	$56, %rsp
	popq	%rbx
	popq	%rbp
	.cfi_def_cfa 7, 8
	ret
	.cfi_endproc
.LFE9444:
	.size	_ZNSt7__cxx114listIiSaIiEE14_M_create_nodeIJRKiEEEPSt10_List_nodeIiEDpOT_, .-_ZNSt7__cxx114listIiSaIiEE14_M_create_nodeIJRKiEEEPSt10_List_nodeIiEDpOT_
	.section	.text._ZNSt7__cxx1110_List_baseIiSaIiEE11_M_inc_sizeEm,"axG",@progbits,_ZNSt7__cxx1110_List_baseIiSaIiEE11_M_inc_sizeEm,comdat
	.align 2
	.weak	_ZNSt7__cxx1110_List_baseIiSaIiEE11_M_inc_sizeEm
	.type	_ZNSt7__cxx1110_List_baseIiSaIiEE11_M_inc_sizeEm, @function
_ZNSt7__cxx1110_List_baseIiSaIiEE11_M_inc_sizeEm:
.LFB9445:
	.cfi_startproc
	pushq	%rbp
	.cfi_def_cfa_offset 16
	.cfi_offset 6, -16
	movq	%rsp, %rbp
	.cfi_def_cfa_register 6
	movq	%rdi, -8(%rbp)
	movq	%rsi, -16(%rbp)
	movq	-8(%rbp), %rax
	movq	16(%rax), %rdx
	movq	-16(%rbp), %rax
	addq	%rax, %rdx
	movq	-8(%rbp), %rax
	movq	%rdx, 16(%rax)
	nop
	popq	%rbp
	.cfi_def_cfa 7, 8
	ret
	.cfi_endproc
.LFE9445:
	.size	_ZNSt7__cxx1110_List_baseIiSaIiEE11_M_inc_sizeEm, .-_ZNSt7__cxx1110_List_baseIiSaIiEE11_M_inc_sizeEm
	.section	.text._ZNSt11_Deque_baseIiSaIiEEC2Ev,"axG",@progbits,_ZNSt11_Deque_baseIiSaIiEEC5Ev,comdat
	.align 2
	.weak	_ZNSt11_Deque_baseIiSaIiEEC2Ev
	.type	_ZNSt11_Deque_baseIiSaIiEEC2Ev, @function
_ZNSt11_Deque_baseIiSaIiEEC2Ev:
.LFB9447:
	.cfi_startproc
	.cfi_personality 0x9b,DW.ref.__gxx_personality_v0
	.cfi_lsda 0x1b,.LLSDA9447
	pushq	%rbp
	.cfi_def_cfa_offset 16
	.cfi_offset 6, -16
	movq	%rsp, %rbp
	.cfi_def_cfa_register 6
	pushq	%rbx
	subq	$24, %rsp
	.cfi_offset 3, -24
	movq	%rdi, -24(%rbp)
	movq	-24(%rbp), %rax
	movq	%rax, %rdi
	call	_ZNSt11_Deque_baseIiSaIiEE11_Deque_implC1Ev
	movq	-24(%rbp), %rax
	movl	$0, %esi
	movq	%rax, %rdi
.LEHB6:
	call	_ZNSt11_Deque_baseIiSaIiEE17_M_initialize_mapEm
.LEHE6:
	jmp	.L187
.L186:
	movq	%rax, %rbx
	movq	-24(%rbp), %rax
	movq	%rax, %rdi
	call	_ZNSt11_Deque_baseIiSaIiEE11_Deque_implD1Ev
	movq	%rbx, %rax
	movq	%rax, %rdi
.LEHB7:
	call	_Unwind_Resume@PLT
.LEHE7:
.L187:
	addq	$24, %rsp
	popq	%rbx
	popq	%rbp
	.cfi_def_cfa 7, 8
	ret
	.cfi_endproc
.LFE9447:
	.section	.gcc_except_table
.LLSDA9447:
	.byte	0xff
	.byte	0xff
	.byte	0x1
	.uleb128 .LLSDACSE9447-.LLSDACSB9447
.LLSDACSB9447:
	.uleb128 .LEHB6-.LFB9447
	.uleb128 .LEHE6-.LEHB6
	.uleb128 .L186-.LFB9447
	.uleb128 0
	.uleb128 .LEHB7-.LFB9447
	.uleb128 .LEHE7-.LEHB7
	.uleb128 0
	.uleb128 0
.LLSDACSE9447:
	.section	.text._ZNSt11_Deque_baseIiSaIiEEC2Ev,"axG",@progbits,_ZNSt11_Deque_baseIiSaIiEEC5Ev,comdat
	.size	_ZNSt11_Deque_baseIiSaIiEEC2Ev, .-_ZNSt11_Deque_baseIiSaIiEEC2Ev
	.weak	_ZNSt11_Deque_baseIiSaIiEEC1Ev
	.set	_ZNSt11_Deque_baseIiSaIiEEC1Ev,_ZNSt11_Deque_baseIiSaIiEEC2Ev
	.section	.text._ZNSaIiED2Ev,"axG",@progbits,_ZNSaIiED5Ev,comdat
	.align 2
	.weak	_ZNSaIiED2Ev
	.type	_ZNSaIiED2Ev, @function
_ZNSaIiED2Ev:
.LFB9450:
	.cfi_startproc
	pushq	%rbp
	.cfi_def_cfa_offset 16
	.cfi_offset 6, -16
	movq	%rsp, %rbp
	.cfi_def_cfa_register 6
	subq	$16, %rsp
	movq	%rdi, -8(%rbp)
	movq	-8(%rbp), %rax
	movq	%rax, %rdi
	call	_ZN9__gnu_cxx13new_allocatorIiED2Ev
	nop
	leave
	.cfi_def_cfa 7, 8
	ret
	.cfi_endproc
.LFE9450:
	.size	_ZNSaIiED2Ev, .-_ZNSaIiED2Ev
	.weak	_ZNSaIiED1Ev
	.set	_ZNSaIiED1Ev,_ZNSaIiED2Ev
	.section	.text._ZNSt11_Deque_baseIiSaIiEE16_M_destroy_nodesEPPiS3_,"axG",@progbits,_ZNSt11_Deque_baseIiSaIiEE16_M_destroy_nodesEPPiS3_,comdat
	.align 2
	.weak	_ZNSt11_Deque_baseIiSaIiEE16_M_destroy_nodesEPPiS3_
	.type	_ZNSt11_Deque_baseIiSaIiEE16_M_destroy_nodesEPPiS3_, @function
_ZNSt11_Deque_baseIiSaIiEE16_M_destroy_nodesEPPiS3_:
.LFB9452:
	.cfi_startproc
	pushq	%rbp
	.cfi_def_cfa_offset 16
	.cfi_offset 6, -16
	movq	%rsp, %rbp
	.cfi_def_cfa_register 6
	subq	$48, %rsp
	movq	%rdi, -24(%rbp)
	movq	%rsi, -32(%rbp)
	movq	%rdx, -40(%rbp)
	movq	-32(%rbp), %rax
	movq	%rax, -8(%rbp)
.L191:
	movq	-8(%rbp), %rax
	cmpq	-40(%rbp), %rax
	jnb	.L192
	movq	-8(%rbp), %rax
	movq	(%rax), %rdx
	movq	-24(%rbp), %rax
	movq	%rdx, %rsi
	movq	%rax, %rdi
	call	_ZNSt11_Deque_baseIiSaIiEE18_M_deallocate_nodeEPi
	addq	$8, -8(%rbp)
	jmp	.L191
.L192:
	nop
	leave
	.cfi_def_cfa 7, 8
	ret
	.cfi_endproc
.LFE9452:
	.size	_ZNSt11_Deque_baseIiSaIiEE16_M_destroy_nodesEPPiS3_, .-_ZNSt11_Deque_baseIiSaIiEE16_M_destroy_nodesEPPiS3_
	.section	.text._ZNSt11_Deque_baseIiSaIiEE17_M_deallocate_mapEPPim,"axG",@progbits,_ZNSt11_Deque_baseIiSaIiEE17_M_deallocate_mapEPPim,comdat
	.align 2
	.weak	_ZNSt11_Deque_baseIiSaIiEE17_M_deallocate_mapEPPim
	.type	_ZNSt11_Deque_baseIiSaIiEE17_M_deallocate_mapEPPim, @function
_ZNSt11_Deque_baseIiSaIiEE17_M_deallocate_mapEPPim:
.LFB9453:
	.cfi_startproc
	.cfi_personality 0x9b,DW.ref.__gxx_personality_v0
	.cfi_lsda 0x1b,.LLSDA9453
	pushq	%rbp
	.cfi_def_cfa_offset 16
	.cfi_offset 6, -16
	movq	%rsp, %rbp
	.cfi_def_cfa_register 6
	subq	$48, %rsp
	movq	%rdi, -24(%rbp)
	movq	%rsi, -32(%rbp)
	movq	%rdx, -40(%rbp)
	leaq	-1(%rbp), %rax
	movq	-24(%rbp), %rdx
	movq	%rdx, %rsi
	movq	%rax, %rdi
	call	_ZNKSt11_Deque_baseIiSaIiEE20_M_get_map_allocatorEv
	movq	-40(%rbp), %rdx
	movq	-32(%rbp), %rcx
	leaq	-1(%rbp), %rax
	movq	%rcx, %rsi
	movq	%rax, %rdi
	call	_ZNSt16allocator_traitsISaIPiEE10deallocateERS1_PS0_m
	leaq	-1(%rbp), %rax
	movq	%rax, %rdi
	call	_ZNSaIPiED1Ev
	nop
	leave
	.cfi_def_cfa 7, 8
	ret
	.cfi_endproc
.LFE9453:
	.section	.gcc_except_table
.LLSDA9453:
	.byte	0xff
	.byte	0xff
	.byte	0x1
	.uleb128 .LLSDACSE9453-.LLSDACSB9453
.LLSDACSB9453:
.LLSDACSE9453:
	.section	.text._ZNSt11_Deque_baseIiSaIiEE17_M_deallocate_mapEPPim,"axG",@progbits,_ZNSt11_Deque_baseIiSaIiEE17_M_deallocate_mapEPPim,comdat
	.size	_ZNSt11_Deque_baseIiSaIiEE17_M_deallocate_mapEPPim, .-_ZNSt11_Deque_baseIiSaIiEE17_M_deallocate_mapEPPim
	.section	.text._ZNSt16allocator_traitsISaIiEE9constructIiJRKiEEEvRS0_PT_DpOT0_,"axG",@progbits,_ZNSt16allocator_traitsISaIiEE9constructIiJRKiEEEvRS0_PT_DpOT0_,comdat
	.weak	_ZNSt16allocator_traitsISaIiEE9constructIiJRKiEEEvRS0_PT_DpOT0_
	.type	_ZNSt16allocator_traitsISaIiEE9constructIiJRKiEEEvRS0_PT_DpOT0_, @function
_ZNSt16allocator_traitsISaIiEE9constructIiJRKiEEEvRS0_PT_DpOT0_:
.LFB9455:
	.cfi_startproc
	pushq	%rbp
	.cfi_def_cfa_offset 16
	.cfi_offset 6, -16
	movq	%rsp, %rbp
	.cfi_def_cfa_register 6
	subq	$32, %rsp
	movq	%rdi, -8(%rbp)
	movq	%rsi, -16(%rbp)
	movq	%rdx, -24(%rbp)
	movq	-24(%rbp), %rax
	movq	%rax, %rdi
	call	_ZSt7forwardIRKiEOT_RNSt16remove_referenceIS2_E4typeE
	movq	%rax, %rdx
	movq	-16(%rbp), %rcx
	movq	-8(%rbp), %rax
	movq	%rcx, %rsi
	movq	%rax, %rdi
	call	_ZN9__gnu_cxx13new_allocatorIiE9constructIiJRKiEEEvPT_DpOT0_
	nop
	leave
	.cfi_def_cfa 7, 8
	ret
	.cfi_endproc
.LFE9455:
	.size	_ZNSt16allocator_traitsISaIiEE9constructIiJRKiEEEvRS0_PT_DpOT0_, .-_ZNSt16allocator_traitsISaIiEE9constructIiJRKiEEEvRS0_PT_DpOT0_
	.section	.rodata
	.align 8
.LC3:
	.string	"cannot create std::deque larger than max_size()"
	.section	.text._ZNSt5dequeIiSaIiEE16_M_push_back_auxIJRKiEEEvDpOT_,"axG",@progbits,_ZNSt5dequeIiSaIiEE16_M_push_back_auxIJRKiEEEvDpOT_,comdat
	.align 2
	.weak	_ZNSt5dequeIiSaIiEE16_M_push_back_auxIJRKiEEEvDpOT_
	.type	_ZNSt5dequeIiSaIiEE16_M_push_back_auxIJRKiEEEvDpOT_, @function
_ZNSt5dequeIiSaIiEE16_M_push_back_auxIJRKiEEEvDpOT_:
.LFB9456:
	.cfi_startproc
	pushq	%rbp
	.cfi_def_cfa_offset 16
	.cfi_offset 6, -16
	movq	%rsp, %rbp
	.cfi_def_cfa_register 6
	pushq	%rbx
	subq	$24, %rsp
	.cfi_offset 3, -24
	movq	%rdi, -24(%rbp)
	movq	%rsi, -32(%rbp)
	movq	-24(%rbp), %rax
	movq	%rax, %rdi
	call	_ZNKSt5dequeIiSaIiEE4sizeEv
	movq	%rax, %rbx
	movq	-24(%rbp), %rax
	movq	%rax, %rdi
	call	_ZNKSt5dequeIiSaIiEE8max_sizeEv
	cmpq	%rax, %rbx
	sete	%al
	testb	%al, %al
	je	.L196
	leaq	.LC3(%rip), %rdi
	call	_ZSt20__throw_length_errorPKc@PLT
.L196:
	movq	-24(%rbp), %rax
	movl	$1, %esi
	movq	%rax, %rdi
	call	_ZNSt5dequeIiSaIiEE22_M_reserve_map_at_backEm
	movq	-24(%rbp), %rax
	movq	-24(%rbp), %rdx
	movq	72(%rdx), %rdx
	leaq	8(%rdx), %rbx
	movq	%rax, %rdi
	call	_ZNSt11_Deque_baseIiSaIiEE16_M_allocate_nodeEv
	movq	%rax, (%rbx)
	movq	-32(%rbp), %rax
	movq	%rax, %rdi
	call	_ZSt7forwardIRKiEOT_RNSt16remove_referenceIS2_E4typeE
	movq	%rax, %rdx
	movq	-24(%rbp), %rax
	movq	48(%rax), %rcx
	movq	-24(%rbp), %rax
	movq	%rcx, %rsi
	movq	%rax, %rdi
	call	_ZNSt16allocator_traitsISaIiEE9constructIiJRKiEEEvRS0_PT_DpOT0_
	movq	-24(%rbp), %rax
	addq	$48, %rax
	movq	-24(%rbp), %rdx
	movq	72(%rdx), %rdx
	addq	$8, %rdx
	movq	%rdx, %rsi
	movq	%rax, %rdi
	call	_ZNSt15_Deque_iteratorIiRiPiE11_M_set_nodeEPS1_
	movq	-24(%rbp), %rax
	movq	56(%rax), %rdx
	movq	-24(%rbp), %rax
	movq	%rdx, 48(%rax)
	nop
	addq	$24, %rsp
	popq	%rbx
	popq	%rbp
	.cfi_def_cfa 7, 8
	ret
	.cfi_endproc
.LFE9456:
	.size	_ZNSt5dequeIiSaIiEE16_M_push_back_auxIJRKiEEEvDpOT_, .-_ZNSt5dequeIiSaIiEE16_M_push_back_auxIJRKiEEEvDpOT_
	.section	.text._ZSteqIiRiPiEbRKSt15_Deque_iteratorIT_T0_T1_ES8_,"axG",@progbits,_ZSteqIiRiPiEbRKSt15_Deque_iteratorIT_T0_T1_ES8_,comdat
	.weak	_ZSteqIiRiPiEbRKSt15_Deque_iteratorIT_T0_T1_ES8_
	.type	_ZSteqIiRiPiEbRKSt15_Deque_iteratorIT_T0_T1_ES8_, @function
_ZSteqIiRiPiEbRKSt15_Deque_iteratorIT_T0_T1_ES8_:
.LFB9457:
	.cfi_startproc
	pushq	%rbp
	.cfi_def_cfa_offset 16
	.cfi_offset 6, -16
	movq	%rsp, %rbp
	.cfi_def_cfa_register 6
	movq	%rdi, -8(%rbp)
	movq	%rsi, -16(%rbp)
	movq	-8(%rbp), %rax
	movq	(%rax), %rdx
	movq	-16(%rbp), %rax
	movq	(%rax), %rax
	cmpq	%rax, %rdx
	sete	%al
	popq	%rbp
	.cfi_def_cfa 7, 8
	ret
	.cfi_endproc
.LFE9457:
	.size	_ZSteqIiRiPiEbRKSt15_Deque_iteratorIT_T0_T1_ES8_, .-_ZSteqIiRiPiEbRKSt15_Deque_iteratorIT_T0_T1_ES8_
	.section	.text._ZNKSt15_Deque_iteratorIiRiPiEdeEv,"axG",@progbits,_ZNKSt15_Deque_iteratorIiRiPiEdeEv,comdat
	.align 2
	.weak	_ZNKSt15_Deque_iteratorIiRiPiEdeEv
	.type	_ZNKSt15_Deque_iteratorIiRiPiEdeEv, @function
_ZNKSt15_Deque_iteratorIiRiPiEdeEv:
.LFB9458:
	.cfi_startproc
	pushq	%rbp
	.cfi_def_cfa_offset 16
	.cfi_offset 6, -16
	movq	%rsp, %rbp
	.cfi_def_cfa_register 6
	movq	%rdi, -8(%rbp)
	movq	-8(%rbp), %rax
	movq	(%rax), %rax
	popq	%rbp
	.cfi_def_cfa 7, 8
	ret
	.cfi_endproc
.LFE9458:
	.size	_ZNKSt15_Deque_iteratorIiRiPiEdeEv, .-_ZNKSt15_Deque_iteratorIiRiPiEdeEv
	.section	.text._ZNSt16allocator_traitsISaIiEE7destroyIiEEvRS0_PT_,"axG",@progbits,_ZNSt16allocator_traitsISaIiEE7destroyIiEEvRS0_PT_,comdat
	.weak	_ZNSt16allocator_traitsISaIiEE7destroyIiEEvRS0_PT_
	.type	_ZNSt16allocator_traitsISaIiEE7destroyIiEEvRS0_PT_, @function
_ZNSt16allocator_traitsISaIiEE7destroyIiEEvRS0_PT_:
.LFB9459:
	.cfi_startproc
	pushq	%rbp
	.cfi_def_cfa_offset 16
	.cfi_offset 6, -16
	movq	%rsp, %rbp
	.cfi_def_cfa_register 6
	subq	$16, %rsp
	movq	%rdi, -8(%rbp)
	movq	%rsi, -16(%rbp)
	movq	-16(%rbp), %rdx
	movq	-8(%rbp), %rax
	movq	%rdx, %rsi
	movq	%rax, %rdi
	call	_ZN9__gnu_cxx13new_allocatorIiE7destroyIiEEvPT_
	nop
	leave
	.cfi_def_cfa 7, 8
	ret
	.cfi_endproc
.LFE9459:
	.size	_ZNSt16allocator_traitsISaIiEE7destroyIiEEvRS0_PT_, .-_ZNSt16allocator_traitsISaIiEE7destroyIiEEvRS0_PT_
	.section	.text._ZNSt5dequeIiSaIiEE16_M_pop_front_auxEv,"axG",@progbits,_ZNSt5dequeIiSaIiEE16_M_pop_front_auxEv,comdat
	.align 2
	.weak	_ZNSt5dequeIiSaIiEE16_M_pop_front_auxEv
	.type	_ZNSt5dequeIiSaIiEE16_M_pop_front_auxEv, @function
_ZNSt5dequeIiSaIiEE16_M_pop_front_auxEv:
.LFB9460:
	.cfi_startproc
	pushq	%rbp
	.cfi_def_cfa_offset 16
	.cfi_offset 6, -16
	movq	%rsp, %rbp
	.cfi_def_cfa_register 6
	pushq	%rbx
	subq	$24, %rsp
	.cfi_offset 3, -24
	movq	%rdi, -24(%rbp)
	movq	-24(%rbp), %rax
	movq	16(%rax), %rbx
	movq	-24(%rbp), %rax
	movq	%rax, %rdi
	call	_ZNSt11_Deque_baseIiSaIiEE19_M_get_Tp_allocatorEv
	movq	%rbx, %rsi
	movq	%rax, %rdi
	call	_ZNSt16allocator_traitsISaIiEE7destroyIiEEvRS0_PT_
	movq	-24(%rbp), %rax
	movq	-24(%rbp), %rdx
	movq	24(%rdx), %rdx
	movq	%rdx, %rsi
	movq	%rax, %rdi
	call	_ZNSt11_Deque_baseIiSaIiEE18_M_deallocate_nodeEPi
	movq	-24(%rbp), %rax
	addq	$16, %rax
	movq	-24(%rbp), %rdx
	movq	40(%rdx), %rdx
	addq	$8, %rdx
	movq	%rdx, %rsi
	movq	%rax, %rdi
	call	_ZNSt15_Deque_iteratorIiRiPiE11_M_set_nodeEPS1_
	movq	-24(%rbp), %rax
	movq	24(%rax), %rdx
	movq	-24(%rbp), %rax
	movq	%rdx, 16(%rax)
	nop
	addq	$24, %rsp
	popq	%rbx
	popq	%rbp
	.cfi_def_cfa 7, 8
	ret
	.cfi_endproc
.LFE9460:
	.size	_ZNSt5dequeIiSaIiEE16_M_pop_front_auxEv, .-_ZNSt5dequeIiSaIiEE16_M_pop_front_auxEv
	.section	.text._ZN9__gnu_cxx16__aligned_membufIiE6_M_ptrEv,"axG",@progbits,_ZN9__gnu_cxx16__aligned_membufIiE6_M_ptrEv,comdat
	.align 2
	.weak	_ZN9__gnu_cxx16__aligned_membufIiE6_M_ptrEv
	.type	_ZN9__gnu_cxx16__aligned_membufIiE6_M_ptrEv, @function
_ZN9__gnu_cxx16__aligned_membufIiE6_M_ptrEv:
.LFB9461:
	.cfi_startproc
	pushq	%rbp
	.cfi_def_cfa_offset 16
	.cfi_offset 6, -16
	movq	%rsp, %rbp
	.cfi_def_cfa_register 6
	subq	$16, %rsp
	movq	%rdi, -8(%rbp)
	movq	-8(%rbp), %rax
	movq	%rax, %rdi
	call	_ZN9__gnu_cxx16__aligned_membufIiE7_M_addrEv
	leave
	.cfi_def_cfa 7, 8
	ret
	.cfi_endproc
.LFE9461:
	.size	_ZN9__gnu_cxx16__aligned_membufIiE6_M_ptrEv, .-_ZN9__gnu_cxx16__aligned_membufIiE6_M_ptrEv
	.section	.text._ZN9__gnu_cxx13new_allocatorISt10_List_nodeIiEEC2Ev,"axG",@progbits,_ZN9__gnu_cxx13new_allocatorISt10_List_nodeIiEEC5Ev,comdat
	.align 2
	.weak	_ZN9__gnu_cxx13new_allocatorISt10_List_nodeIiEEC2Ev
	.type	_ZN9__gnu_cxx13new_allocatorISt10_List_nodeIiEEC2Ev, @function
_ZN9__gnu_cxx13new_allocatorISt10_List_nodeIiEEC2Ev:
.LFB9463:
	.cfi_startproc
	pushq	%rbp
	.cfi_def_cfa_offset 16
	.cfi_offset 6, -16
	movq	%rsp, %rbp
	.cfi_def_cfa_register 6
	movq	%rdi, -8(%rbp)
	nop
	popq	%rbp
	.cfi_def_cfa 7, 8
	ret
	.cfi_endproc
.LFE9463:
	.size	_ZN9__gnu_cxx13new_allocatorISt10_List_nodeIiEEC2Ev, .-_ZN9__gnu_cxx13new_allocatorISt10_List_nodeIiEEC2Ev
	.weak	_ZN9__gnu_cxx13new_allocatorISt10_List_nodeIiEEC1Ev
	.set	_ZN9__gnu_cxx13new_allocatorISt10_List_nodeIiEEC1Ev,_ZN9__gnu_cxx13new_allocatorISt10_List_nodeIiEEC2Ev
	.section	.text._ZNSt7__cxx1110_List_baseIiSaIiEE21_M_get_Node_allocatorEv,"axG",@progbits,_ZNSt7__cxx1110_List_baseIiSaIiEE21_M_get_Node_allocatorEv,comdat
	.align 2
	.weak	_ZNSt7__cxx1110_List_baseIiSaIiEE21_M_get_Node_allocatorEv
	.type	_ZNSt7__cxx1110_List_baseIiSaIiEE21_M_get_Node_allocatorEv, @function
_ZNSt7__cxx1110_List_baseIiSaIiEE21_M_get_Node_allocatorEv:
.LFB9465:
	.cfi_startproc
	pushq	%rbp
	.cfi_def_cfa_offset 16
	.cfi_offset 6, -16
	movq	%rsp, %rbp
	.cfi_def_cfa_register 6
	movq	%rdi, -8(%rbp)
	movq	-8(%rbp), %rax
	popq	%rbp
	.cfi_def_cfa 7, 8
	ret
	.cfi_endproc
.LFE9465:
	.size	_ZNSt7__cxx1110_List_baseIiSaIiEE21_M_get_Node_allocatorEv, .-_ZNSt7__cxx1110_List_baseIiSaIiEE21_M_get_Node_allocatorEv
	.section	.text._ZNSt16allocator_traitsISaISt10_List_nodeIiEEE7destroyIiEEvRS2_PT_,"axG",@progbits,_ZNSt16allocator_traitsISaISt10_List_nodeIiEEE7destroyIiEEvRS2_PT_,comdat
	.weak	_ZNSt16allocator_traitsISaISt10_List_nodeIiEEE7destroyIiEEvRS2_PT_
	.type	_ZNSt16allocator_traitsISaISt10_List_nodeIiEEE7destroyIiEEvRS2_PT_, @function
_ZNSt16allocator_traitsISaISt10_List_nodeIiEEE7destroyIiEEvRS2_PT_:
.LFB9466:
	.cfi_startproc
	pushq	%rbp
	.cfi_def_cfa_offset 16
	.cfi_offset 6, -16
	movq	%rsp, %rbp
	.cfi_def_cfa_register 6
	subq	$16, %rsp
	movq	%rdi, -8(%rbp)
	movq	%rsi, -16(%rbp)
	movq	-16(%rbp), %rdx
	movq	-8(%rbp), %rax
	movq	%rdx, %rsi
	movq	%rax, %rdi
	call	_ZN9__gnu_cxx13new_allocatorISt10_List_nodeIiEE7destroyIiEEvPT_
	nop
	leave
	.cfi_def_cfa 7, 8
	ret
	.cfi_endproc
.LFE9466:
	.size	_ZNSt16allocator_traitsISaISt10_List_nodeIiEEE7destroyIiEEvRS2_PT_, .-_ZNSt16allocator_traitsISaISt10_List_nodeIiEEE7destroyIiEEvRS2_PT_
	.section	.text._ZNSt7__cxx1110_List_baseIiSaIiEE11_M_put_nodeEPSt10_List_nodeIiE,"axG",@progbits,_ZNSt7__cxx1110_List_baseIiSaIiEE11_M_put_nodeEPSt10_List_nodeIiE,comdat
	.align 2
	.weak	_ZNSt7__cxx1110_List_baseIiSaIiEE11_M_put_nodeEPSt10_List_nodeIiE
	.type	_ZNSt7__cxx1110_List_baseIiSaIiEE11_M_put_nodeEPSt10_List_nodeIiE, @function
_ZNSt7__cxx1110_List_baseIiSaIiEE11_M_put_nodeEPSt10_List_nodeIiE:
.LFB9467:
	.cfi_startproc
	.cfi_personality 0x9b,DW.ref.__gxx_personality_v0
	.cfi_lsda 0x1b,.LLSDA9467
	pushq	%rbp
	.cfi_def_cfa_offset 16
	.cfi_offset 6, -16
	movq	%rsp, %rbp
	.cfi_def_cfa_register 6
	subq	$16, %rsp
	movq	%rdi, -8(%rbp)
	movq	%rsi, -16(%rbp)
	movq	-8(%rbp), %rax
	movq	-16(%rbp), %rcx
	movl	$1, %edx
	movq	%rcx, %rsi
	movq	%rax, %rdi
	call	_ZNSt16allocator_traitsISaISt10_List_nodeIiEEE10deallocateERS2_PS1_m
	nop
	leave
	.cfi_def_cfa 7, 8
	ret
	.cfi_endproc
.LFE9467:
	.section	.gcc_except_table
.LLSDA9467:
	.byte	0xff
	.byte	0xff
	.byte	0x1
	.uleb128 .LLSDACSE9467-.LLSDACSB9467
.LLSDACSB9467:
.LLSDACSE9467:
	.section	.text._ZNSt7__cxx1110_List_baseIiSaIiEE11_M_put_nodeEPSt10_List_nodeIiE,"axG",@progbits,_ZNSt7__cxx1110_List_baseIiSaIiEE11_M_put_nodeEPSt10_List_nodeIiE,comdat
	.size	_ZNSt7__cxx1110_List_baseIiSaIiEE11_M_put_nodeEPSt10_List_nodeIiE, .-_ZNSt7__cxx1110_List_baseIiSaIiEE11_M_put_nodeEPSt10_List_nodeIiE
	.section	.text._ZN9__gnu_cxx13new_allocatorISt4pairIiiEEC2Ev,"axG",@progbits,_ZN9__gnu_cxx13new_allocatorISt4pairIiiEEC5Ev,comdat
	.align 2
	.weak	_ZN9__gnu_cxx13new_allocatorISt4pairIiiEEC2Ev
	.type	_ZN9__gnu_cxx13new_allocatorISt4pairIiiEEC2Ev, @function
_ZN9__gnu_cxx13new_allocatorISt4pairIiiEEC2Ev:
.LFB9469:
	.cfi_startproc
	pushq	%rbp
	.cfi_def_cfa_offset 16
	.cfi_offset 6, -16
	movq	%rsp, %rbp
	.cfi_def_cfa_register 6
	movq	%rdi, -8(%rbp)
	nop
	popq	%rbp
	.cfi_def_cfa 7, 8
	ret
	.cfi_endproc
.LFE9469:
	.size	_ZN9__gnu_cxx13new_allocatorISt4pairIiiEEC2Ev, .-_ZN9__gnu_cxx13new_allocatorISt4pairIiiEEC2Ev
	.weak	_ZN9__gnu_cxx13new_allocatorISt4pairIiiEEC1Ev
	.set	_ZN9__gnu_cxx13new_allocatorISt4pairIiiEEC1Ev,_ZN9__gnu_cxx13new_allocatorISt4pairIiiEEC2Ev
	.section	.text._ZNSt16allocator_traitsISaISt4pairIiiEEE10deallocateERS2_PS1_m,"axG",@progbits,_ZNSt16allocator_traitsISaISt4pairIiiEEE10deallocateERS2_PS1_m,comdat
	.weak	_ZNSt16allocator_traitsISaISt4pairIiiEEE10deallocateERS2_PS1_m
	.type	_ZNSt16allocator_traitsISaISt4pairIiiEEE10deallocateERS2_PS1_m, @function
_ZNSt16allocator_traitsISaISt4pairIiiEEE10deallocateERS2_PS1_m:
.LFB9471:
	.cfi_startproc
	pushq	%rbp
	.cfi_def_cfa_offset 16
	.cfi_offset 6, -16
	movq	%rsp, %rbp
	.cfi_def_cfa_register 6
	subq	$32, %rsp
	movq	%rdi, -8(%rbp)
	movq	%rsi, -16(%rbp)
	movq	%rdx, -24(%rbp)
	movq	-24(%rbp), %rdx
	movq	-16(%rbp), %rcx
	movq	-8(%rbp), %rax
	movq	%rcx, %rsi
	movq	%rax, %rdi
	call	_ZN9__gnu_cxx13new_allocatorISt4pairIiiEE10deallocateEPS2_m
	nop
	leave
	.cfi_def_cfa 7, 8
	ret
	.cfi_endproc
.LFE9471:
	.size	_ZNSt16allocator_traitsISaISt4pairIiiEEE10deallocateERS2_PS1_m, .-_ZNSt16allocator_traitsISaISt4pairIiiEEE10deallocateERS2_PS1_m
	.section	.text._ZSt8_DestroyIPSt4pairIiiEEvT_S3_,"axG",@progbits,_ZSt8_DestroyIPSt4pairIiiEEvT_S3_,comdat
	.weak	_ZSt8_DestroyIPSt4pairIiiEEvT_S3_
	.type	_ZSt8_DestroyIPSt4pairIiiEEvT_S3_, @function
_ZSt8_DestroyIPSt4pairIiiEEvT_S3_:
.LFB9472:
	.cfi_startproc
	pushq	%rbp
	.cfi_def_cfa_offset 16
	.cfi_offset 6, -16
	movq	%rsp, %rbp
	.cfi_def_cfa_register 6
	subq	$16, %rsp
	movq	%rdi, -8(%rbp)
	movq	%rsi, -16(%rbp)
	movq	-16(%rbp), %rdx
	movq	-8(%rbp), %rax
	movq	%rdx, %rsi
	movq	%rax, %rdi
	call	_ZNSt12_Destroy_auxILb1EE9__destroyIPSt4pairIiiEEEvT_S5_
	nop
	leave
	.cfi_def_cfa 7, 8
	ret
	.cfi_endproc
.LFE9472:
	.size	_ZSt8_DestroyIPSt4pairIiiEEvT_S3_, .-_ZSt8_DestroyIPSt4pairIiiEEvT_S3_
	.section	.text._ZSt7forwardISt4pairIiiEEOT_RNSt16remove_referenceIS2_E4typeE,"axG",@progbits,_ZSt7forwardISt4pairIiiEEOT_RNSt16remove_referenceIS2_E4typeE,comdat
	.weak	_ZSt7forwardISt4pairIiiEEOT_RNSt16remove_referenceIS2_E4typeE
	.type	_ZSt7forwardISt4pairIiiEEOT_RNSt16remove_referenceIS2_E4typeE, @function
_ZSt7forwardISt4pairIiiEEOT_RNSt16remove_referenceIS2_E4typeE:
.LFB9473:
	.cfi_startproc
	pushq	%rbp
	.cfi_def_cfa_offset 16
	.cfi_offset 6, -16
	movq	%rsp, %rbp
	.cfi_def_cfa_register 6
	movq	%rdi, -8(%rbp)
	movq	-8(%rbp), %rax
	popq	%rbp
	.cfi_def_cfa 7, 8
	ret
	.cfi_endproc
.LFE9473:
	.size	_ZSt7forwardISt4pairIiiEEOT_RNSt16remove_referenceIS2_E4typeE, .-_ZSt7forwardISt4pairIiiEEOT_RNSt16remove_referenceIS2_E4typeE
	.section	.text._ZNSt16allocator_traitsISaISt4pairIiiEEE9constructIS1_JS1_EEEvRS2_PT_DpOT0_,"axG",@progbits,_ZNSt16allocator_traitsISaISt4pairIiiEEE9constructIS1_JS1_EEEvRS2_PT_DpOT0_,comdat
	.weak	_ZNSt16allocator_traitsISaISt4pairIiiEEE9constructIS1_JS1_EEEvRS2_PT_DpOT0_
	.type	_ZNSt16allocator_traitsISaISt4pairIiiEEE9constructIS1_JS1_EEEvRS2_PT_DpOT0_, @function
_ZNSt16allocator_traitsISaISt4pairIiiEEE9constructIS1_JS1_EEEvRS2_PT_DpOT0_:
.LFB9474:
	.cfi_startproc
	pushq	%rbp
	.cfi_def_cfa_offset 16
	.cfi_offset 6, -16
	movq	%rsp, %rbp
	.cfi_def_cfa_register 6
	subq	$32, %rsp
	movq	%rdi, -8(%rbp)
	movq	%rsi, -16(%rbp)
	movq	%rdx, -24(%rbp)
	movq	-24(%rbp), %rax
	movq	%rax, %rdi
	call	_ZSt7forwardISt4pairIiiEEOT_RNSt16remove_referenceIS2_E4typeE
	movq	%rax, %rdx
	movq	-16(%rbp), %rcx
	movq	-8(%rbp), %rax
	movq	%rcx, %rsi
	movq	%rax, %rdi
	call	_ZN9__gnu_cxx13new_allocatorISt4pairIiiEE9constructIS2_JS2_EEEvPT_DpOT0_
	nop
	leave
	.cfi_def_cfa 7, 8
	ret
	.cfi_endproc
.LFE9474:
	.size	_ZNSt16allocator_traitsISaISt4pairIiiEEE9constructIS1_JS1_EEEvRS2_PT_DpOT0_, .-_ZNSt16allocator_traitsISaISt4pairIiiEEE9constructIS1_JS1_EEEvRS2_PT_DpOT0_
	.section	.text._ZNSt6vectorISt4pairIiiESaIS1_EE15_S_use_relocateEv,"axG",@progbits,_ZNSt6vectorISt4pairIiiESaIS1_EE15_S_use_relocateEv,comdat
	.weak	_ZNSt6vectorISt4pairIiiESaIS1_EE15_S_use_relocateEv
	.type	_ZNSt6vectorISt4pairIiiESaIS1_EE15_S_use_relocateEv, @function
_ZNSt6vectorISt4pairIiiESaIS1_EE15_S_use_relocateEv:
.LFB9476:
	.cfi_startproc
	pushq	%rbp
	.cfi_def_cfa_offset 16
	.cfi_offset 6, -16
	movq	%rsp, %rbp
	.cfi_def_cfa_register 6
	subq	$16, %rsp
	call	_ZNSt6vectorISt4pairIiiESaIS1_EE19_S_nothrow_relocateESt17integral_constantIbLb1EE
	leave
	.cfi_def_cfa 7, 8
	ret
	.cfi_endproc
.LFE9476:
	.size	_ZNSt6vectorISt4pairIiiESaIS1_EE15_S_use_relocateEv, .-_ZNSt6vectorISt4pairIiiESaIS1_EE15_S_use_relocateEv
	.section	.text._ZNSt6vectorISt4pairIiiESaIS1_EE19_S_nothrow_relocateESt17integral_constantIbLb1EE,"axG",@progbits,_ZNSt6vectorISt4pairIiiESaIS1_EE19_S_nothrow_relocateESt17integral_constantIbLb1EE,comdat
	.weak	_ZNSt6vectorISt4pairIiiESaIS1_EE19_S_nothrow_relocateESt17integral_constantIbLb1EE
	.type	_ZNSt6vectorISt4pairIiiESaIS1_EE19_S_nothrow_relocateESt17integral_constantIbLb1EE, @function
_ZNSt6vectorISt4pairIiiESaIS1_EE19_S_nothrow_relocateESt17integral_constantIbLb1EE:
.LFB9477:
	.cfi_startproc
	pushq	%rbp
	.cfi_def_cfa_offset 16
	.cfi_offset 6, -16
	movq	%rsp, %rbp
	.cfi_def_cfa_register 6
	movl	$1, %eax
	popq	%rbp
	.cfi_def_cfa 7, 8
	ret
	.cfi_endproc
.LFE9477:
	.size	_ZNSt6vectorISt4pairIiiESaIS1_EE19_S_nothrow_relocateESt17integral_constantIbLb1EE, .-_ZNSt6vectorISt4pairIiiESaIS1_EE19_S_nothrow_relocateESt17integral_constantIbLb1EE
	.section	.rodata
.LC4:
	.string	"vector::_M_realloc_insert"
	.section	.text._ZNSt6vectorISt4pairIiiESaIS1_EE17_M_realloc_insertIJS1_EEEvN9__gnu_cxx17__normal_iteratorIPS1_S3_EEDpOT_,"axG",@progbits,_ZNSt6vectorISt4pairIiiESaIS1_EE17_M_realloc_insertIJS1_EEEvN9__gnu_cxx17__normal_iteratorIPS1_S3_EEDpOT_,comdat
	.align 2
	.weak	_ZNSt6vectorISt4pairIiiESaIS1_EE17_M_realloc_insertIJS1_EEEvN9__gnu_cxx17__normal_iteratorIPS1_S3_EEDpOT_
	.type	_ZNSt6vectorISt4pairIiiESaIS1_EE17_M_realloc_insertIJS1_EEEvN9__gnu_cxx17__normal_iteratorIPS1_S3_EEDpOT_, @function
_ZNSt6vectorISt4pairIiiESaIS1_EE17_M_realloc_insertIJS1_EEEvN9__gnu_cxx17__normal_iteratorIPS1_S3_EEDpOT_:
.LFB9475:
	.cfi_startproc
	.cfi_personality 0x9b,DW.ref.__gxx_personality_v0
	.cfi_lsda 0x1b,.LLSDA9475
	pushq	%rbp
	.cfi_def_cfa_offset 16
	.cfi_offset 6, -16
	movq	%rsp, %rbp
	.cfi_def_cfa_register 6
	pushq	%rbx
	subq	$104, %rsp
	.cfi_offset 3, -24
	movq	%rdi, -88(%rbp)
	movq	%rsi, -96(%rbp)
	movq	%rdx, -104(%rbp)
	movq	-88(%rbp), %rax
	leaq	.LC4(%rip), %rdx
	movl	$1, %esi
	movq	%rax, %rdi
.LEHB8:
	call	_ZNKSt6vectorISt4pairIiiESaIS1_EE12_M_check_lenEmPKc
	movq	%rax, -32(%rbp)
	movq	-88(%rbp), %rax
	movq	(%rax), %rax
	movq	%rax, -40(%rbp)
	movq	-88(%rbp), %rax
	movq	8(%rax), %rax
	movq	%rax, -48(%rbp)
	movq	-88(%rbp), %rax
	movq	%rax, %rdi
	call	_ZNSt6vectorISt4pairIiiESaIS1_EE5beginEv
	movq	%rax, -72(%rbp)
	leaq	-72(%rbp), %rdx
	leaq	-96(%rbp), %rax
	movq	%rdx, %rsi
	movq	%rax, %rdi
	call	_ZN9__gnu_cxxmiIPSt4pairIiiESt6vectorIS2_SaIS2_EEEENS_17__normal_iteratorIT_T0_E15difference_typeERKSA_SD_
	movq	%rax, -56(%rbp)
	movq	-88(%rbp), %rax
	movq	-32(%rbp), %rdx
	movq	%rdx, %rsi
	movq	%rax, %rdi
	call	_ZNSt12_Vector_baseISt4pairIiiESaIS1_EE11_M_allocateEm
.LEHE8:
	movq	%rax, -64(%rbp)
	movq	-64(%rbp), %rax
	movq	%rax, -24(%rbp)
	movq	-104(%rbp), %rax
	movq	%rax, %rdi
	call	_ZSt7forwardISt4pairIiiEEOT_RNSt16remove_referenceIS2_E4typeE
	movq	%rax, %rdx
	movq	-56(%rbp), %rax
	leaq	0(,%rax,8), %rcx
	movq	-64(%rbp), %rax
	addq	%rax, %rcx
	movq	-88(%rbp), %rax
	movq	%rcx, %rsi
	movq	%rax, %rdi
	call	_ZNSt16allocator_traitsISaISt4pairIiiEEE9constructIS1_JS1_EEEvRS2_PT_DpOT0_
	movq	$0, -24(%rbp)
	call	_ZNSt6vectorISt4pairIiiESaIS1_EE15_S_use_relocateEv
	testb	%al, %al
	je	.L221
	movq	-88(%rbp), %rax
	movq	%rax, %rdi
	call	_ZNSt12_Vector_baseISt4pairIiiESaIS1_EE19_M_get_Tp_allocatorEv
	movq	%rax, %rbx
	leaq	-96(%rbp), %rax
	movq	%rax, %rdi
	call	_ZNK9__gnu_cxx17__normal_iteratorIPSt4pairIiiESt6vectorIS2_SaIS2_EEE4baseEv
	movq	(%rax), %rsi
	movq	-64(%rbp), %rdx
	movq	-40(%rbp), %rax
	movq	%rbx, %rcx
	movq	%rax, %rdi
	call	_ZNSt6vectorISt4pairIiiESaIS1_EE11_S_relocateEPS1_S4_S4_RS2_
	movq	%rax, -24(%rbp)
	addq	$8, -24(%rbp)
	movq	-88(%rbp), %rax
	movq	%rax, %rdi
	call	_ZNSt12_Vector_baseISt4pairIiiESaIS1_EE19_M_get_Tp_allocatorEv
	movq	%rax, %rbx
	leaq	-96(%rbp), %rax
	movq	%rax, %rdi
	call	_ZNK9__gnu_cxx17__normal_iteratorIPSt4pairIiiESt6vectorIS2_SaIS2_EEE4baseEv
	movq	(%rax), %rax
	movq	-24(%rbp), %rdx
	movq	-48(%rbp), %rsi
	movq	%rbx, %rcx
	movq	%rax, %rdi
	call	_ZNSt6vectorISt4pairIiiESaIS1_EE11_S_relocateEPS1_S4_S4_RS2_
	movq	%rax, -24(%rbp)
	jmp	.L222
.L221:
	movq	-88(%rbp), %rax
	movq	%rax, %rdi
	call	_ZNSt12_Vector_baseISt4pairIiiESaIS1_EE19_M_get_Tp_allocatorEv
	movq	%rax, %rbx
	leaq	-96(%rbp), %rax
	movq	%rax, %rdi
	call	_ZNK9__gnu_cxx17__normal_iteratorIPSt4pairIiiESt6vectorIS2_SaIS2_EEE4baseEv
	movq	(%rax), %rsi
	movq	-64(%rbp), %rdx
	movq	-40(%rbp), %rax
	movq	%rbx, %rcx
	movq	%rax, %rdi
.LEHB9:
	call	_ZSt34__uninitialized_move_if_noexcept_aIPSt4pairIiiES2_SaIS1_EET0_T_S5_S4_RT1_
	movq	%rax, -24(%rbp)
	addq	$8, -24(%rbp)
	movq	-88(%rbp), %rax
	movq	%rax, %rdi
	call	_ZNSt12_Vector_baseISt4pairIiiESaIS1_EE19_M_get_Tp_allocatorEv
	movq	%rax, %rbx
	leaq	-96(%rbp), %rax
	movq	%rax, %rdi
	call	_ZNK9__gnu_cxx17__normal_iteratorIPSt4pairIiiESt6vectorIS2_SaIS2_EEE4baseEv
	movq	(%rax), %rax
	movq	-24(%rbp), %rdx
	movq	-48(%rbp), %rsi
	movq	%rbx, %rcx
	movq	%rax, %rdi
	call	_ZSt34__uninitialized_move_if_noexcept_aIPSt4pairIiiES2_SaIS1_EET0_T_S5_S4_RT1_
.LEHE9:
	movq	%rax, -24(%rbp)
.L222:
	call	_ZNSt6vectorISt4pairIiiESaIS1_EE15_S_use_relocateEv
	xorl	$1, %eax
	testb	%al, %al
	je	.L223
	movq	-88(%rbp), %rax
	movq	%rax, %rdi
	call	_ZNSt12_Vector_baseISt4pairIiiESaIS1_EE19_M_get_Tp_allocatorEv
	movq	%rax, %rdx
	movq	-48(%rbp), %rcx
	movq	-40(%rbp), %rax
	movq	%rcx, %rsi
	movq	%rax, %rdi
.LEHB10:
	call	_ZSt8_DestroyIPSt4pairIiiES1_EvT_S3_RSaIT0_E
.L223:
	movq	-88(%rbp), %rax
	movq	-88(%rbp), %rdx
	movq	16(%rdx), %rdx
	subq	-40(%rbp), %rdx
	sarq	$3, %rdx
	movq	-40(%rbp), %rcx
	movq	%rcx, %rsi
	movq	%rax, %rdi
	call	_ZNSt12_Vector_baseISt4pairIiiESaIS1_EE13_M_deallocateEPS1_m
.LEHE10:
	movq	-88(%rbp), %rax
	movq	-64(%rbp), %rdx
	movq	%rdx, (%rax)
	movq	-88(%rbp), %rax
	movq	-24(%rbp), %rdx
	movq	%rdx, 8(%rax)
	movq	-32(%rbp), %rax
	leaq	0(,%rax,8), %rdx
	movq	-64(%rbp), %rax
	addq	%rax, %rdx
	movq	-88(%rbp), %rax
	movq	%rdx, 16(%rax)
	jmp	.L230
.L228:
	movq	%rax, %rdi
	call	__cxa_begin_catch@PLT
	cmpq	$0, -24(%rbp)
	jne	.L225
	movq	-56(%rbp), %rax
	leaq	0(,%rax,8), %rdx
	movq	-64(%rbp), %rax
	addq	%rax, %rdx
	movq	-88(%rbp), %rax
	movq	%rdx, %rsi
	movq	%rax, %rdi
	call	_ZNSt16allocator_traitsISaISt4pairIiiEEE7destroyIS1_EEvRS2_PT_
	jmp	.L226
.L225:
	movq	-88(%rbp), %rax
	movq	%rax, %rdi
	call	_ZNSt12_Vector_baseISt4pairIiiESaIS1_EE19_M_get_Tp_allocatorEv
	movq	%rax, %rdx
	movq	-24(%rbp), %rcx
	movq	-64(%rbp), %rax
	movq	%rcx, %rsi
	movq	%rax, %rdi
.LEHB11:
	call	_ZSt8_DestroyIPSt4pairIiiES1_EvT_S3_RSaIT0_E
.L226:
	movq	-88(%rbp), %rax
	movq	-32(%rbp), %rdx
	movq	-64(%rbp), %rcx
	movq	%rcx, %rsi
	movq	%rax, %rdi
	call	_ZNSt12_Vector_baseISt4pairIiiESaIS1_EE13_M_deallocateEPS1_m
	call	__cxa_rethrow@PLT
.LEHE11:
.L229:
	movq	%rax, %rbx
	call	__cxa_end_catch@PLT
	movq	%rbx, %rax
	movq	%rax, %rdi
.LEHB12:
	call	_Unwind_Resume@PLT
.LEHE12:
.L230:
	addq	$104, %rsp
	popq	%rbx
	popq	%rbp
	.cfi_def_cfa 7, 8
	ret
	.cfi_endproc
.LFE9475:
	.section	.gcc_except_table
	.align 4
.LLSDA9475:
	.byte	0xff
	.byte	0x9b
	.uleb128 .LLSDATT9475-.LLSDATTD9475
.LLSDATTD9475:
	.byte	0x1
	.uleb128 .LLSDACSE9475-.LLSDACSB9475
.LLSDACSB9475:
	.uleb128 .LEHB8-.LFB9475
	.uleb128 .LEHE8-.LEHB8
	.uleb128 0
	.uleb128 0
	.uleb128 .LEHB9-.LFB9475
	.uleb128 .LEHE9-.LEHB9
	.uleb128 .L228-.LFB9475
	.uleb128 0x1
	.uleb128 .LEHB10-.LFB9475
	.uleb128 .LEHE10-.LEHB10
	.uleb128 0
	.uleb128 0
	.uleb128 .LEHB11-.LFB9475
	.uleb128 .LEHE11-.LEHB11
	.uleb128 .L229-.LFB9475
	.uleb128 0
	.uleb128 .LEHB12-.LFB9475
	.uleb128 .LEHE12-.LEHB12
	.uleb128 0
	.uleb128 0
.LLSDACSE9475:
	.byte	0x1
	.byte	0
	.align 4
	.long	0

.LLSDATT9475:
	.section	.text._ZNSt6vectorISt4pairIiiESaIS1_EE17_M_realloc_insertIJS1_EEEvN9__gnu_cxx17__normal_iteratorIPS1_S3_EEDpOT_,"axG",@progbits,_ZNSt6vectorISt4pairIiiESaIS1_EE17_M_realloc_insertIJS1_EEEvN9__gnu_cxx17__normal_iteratorIPS1_S3_EEDpOT_,comdat
	.size	_ZNSt6vectorISt4pairIiiESaIS1_EE17_M_realloc_insertIJS1_EEEvN9__gnu_cxx17__normal_iteratorIPS1_S3_EEDpOT_, .-_ZNSt6vectorISt4pairIiiESaIS1_EE17_M_realloc_insertIJS1_EEEvN9__gnu_cxx17__normal_iteratorIPS1_S3_EEDpOT_
	.section	.text._ZN9__gnu_cxxneIPSt4pairIiiESt6vectorIS2_SaIS2_EEEEbRKNS_17__normal_iteratorIT_T0_EESC_,"axG",@progbits,_ZN9__gnu_cxxneIPSt4pairIiiESt6vectorIS2_SaIS2_EEEEbRKNS_17__normal_iteratorIT_T0_EESC_,comdat
	.weak	_ZN9__gnu_cxxneIPSt4pairIiiESt6vectorIS2_SaIS2_EEEEbRKNS_17__normal_iteratorIT_T0_EESC_
	.type	_ZN9__gnu_cxxneIPSt4pairIiiESt6vectorIS2_SaIS2_EEEEbRKNS_17__normal_iteratorIT_T0_EESC_, @function
_ZN9__gnu_cxxneIPSt4pairIiiESt6vectorIS2_SaIS2_EEEEbRKNS_17__normal_iteratorIT_T0_EESC_:
.LFB9478:
	.cfi_startproc
	pushq	%rbp
	.cfi_def_cfa_offset 16
	.cfi_offset 6, -16
	movq	%rsp, %rbp
	.cfi_def_cfa_register 6
	pushq	%rbx
	subq	$24, %rsp
	.cfi_offset 3, -24
	movq	%rdi, -24(%rbp)
	movq	%rsi, -32(%rbp)
	movq	-24(%rbp), %rax
	movq	%rax, %rdi
	call	_ZNK9__gnu_cxx17__normal_iteratorIPSt4pairIiiESt6vectorIS2_SaIS2_EEE4baseEv
	movq	(%rax), %rbx
	movq	-32(%rbp), %rax
	movq	%rax, %rdi
	call	_ZNK9__gnu_cxx17__normal_iteratorIPSt4pairIiiESt6vectorIS2_SaIS2_EEE4baseEv
	movq	(%rax), %rax
	cmpq	%rax, %rbx
	setne	%al
	addq	$24, %rsp
	popq	%rbx
	popq	%rbp
	.cfi_def_cfa 7, 8
	ret
	.cfi_endproc
.LFE9478:
	.size	_ZN9__gnu_cxxneIPSt4pairIiiESt6vectorIS2_SaIS2_EEEEbRKNS_17__normal_iteratorIT_T0_EESC_, .-_ZN9__gnu_cxxneIPSt4pairIiiESt6vectorIS2_SaIS2_EEEEbRKNS_17__normal_iteratorIT_T0_EESC_
	.section	.text._ZN9__gnu_cxxmiIPSt4pairIiiESt6vectorIS2_SaIS2_EEEENS_17__normal_iteratorIT_T0_E15difference_typeERKSA_SD_,"axG",@progbits,_ZN9__gnu_cxxmiIPSt4pairIiiESt6vectorIS2_SaIS2_EEEENS_17__normal_iteratorIT_T0_E15difference_typeERKSA_SD_,comdat
	.weak	_ZN9__gnu_cxxmiIPSt4pairIiiESt6vectorIS2_SaIS2_EEEENS_17__normal_iteratorIT_T0_E15difference_typeERKSA_SD_
	.type	_ZN9__gnu_cxxmiIPSt4pairIiiESt6vectorIS2_SaIS2_EEEENS_17__normal_iteratorIT_T0_E15difference_typeERKSA_SD_, @function
_ZN9__gnu_cxxmiIPSt4pairIiiESt6vectorIS2_SaIS2_EEEENS_17__normal_iteratorIT_T0_E15difference_typeERKSA_SD_:
.LFB9479:
	.cfi_startproc
	pushq	%rbp
	.cfi_def_cfa_offset 16
	.cfi_offset 6, -16
	movq	%rsp, %rbp
	.cfi_def_cfa_register 6
	pushq	%rbx
	subq	$24, %rsp
	.cfi_offset 3, -24
	movq	%rdi, -24(%rbp)
	movq	%rsi, -32(%rbp)
	movq	-24(%rbp), %rax
	movq	%rax, %rdi
	call	_ZNK9__gnu_cxx17__normal_iteratorIPSt4pairIiiESt6vectorIS2_SaIS2_EEE4baseEv
	movq	(%rax), %rbx
	movq	-32(%rbp), %rax
	movq	%rax, %rdi
	call	_ZNK9__gnu_cxx17__normal_iteratorIPSt4pairIiiESt6vectorIS2_SaIS2_EEE4baseEv
	movq	(%rax), %rax
	subq	%rax, %rbx
	movq	%rbx, %rax
	sarq	$3, %rax
	addq	$24, %rsp
	popq	%rbx
	popq	%rbp
	.cfi_def_cfa 7, 8
	ret
	.cfi_endproc
.LFE9479:
	.size	_ZN9__gnu_cxxmiIPSt4pairIiiESt6vectorIS2_SaIS2_EEEENS_17__normal_iteratorIT_T0_E15difference_typeERKSA_SD_, .-_ZN9__gnu_cxxmiIPSt4pairIiiESt6vectorIS2_SaIS2_EEEENS_17__normal_iteratorIT_T0_E15difference_typeERKSA_SD_
	.section	.text._ZSt16__introsort_loopIN9__gnu_cxx17__normal_iteratorIPSt4pairIiiESt6vectorIS3_SaIS3_EEEElNS0_5__ops15_Iter_less_iterEEvT_SB_T0_T1_,"axG",@progbits,_ZSt16__introsort_loopIN9__gnu_cxx17__normal_iteratorIPSt4pairIiiESt6vectorIS3_SaIS3_EEEElNS0_5__ops15_Iter_less_iterEEvT_SB_T0_T1_,comdat
	.weak	_ZSt16__introsort_loopIN9__gnu_cxx17__normal_iteratorIPSt4pairIiiESt6vectorIS3_SaIS3_EEEElNS0_5__ops15_Iter_less_iterEEvT_SB_T0_T1_
	.type	_ZSt16__introsort_loopIN9__gnu_cxx17__normal_iteratorIPSt4pairIiiESt6vectorIS3_SaIS3_EEEElNS0_5__ops15_Iter_less_iterEEvT_SB_T0_T1_, @function
_ZSt16__introsort_loopIN9__gnu_cxx17__normal_iteratorIPSt4pairIiiESt6vectorIS3_SaIS3_EEEElNS0_5__ops15_Iter_less_iterEEvT_SB_T0_T1_:
.LFB9480:
	.cfi_startproc
	pushq	%rbp
	.cfi_def_cfa_offset 16
	.cfi_offset 6, -16
	movq	%rsp, %rbp
	.cfi_def_cfa_register 6
	subq	$48, %rsp
	movq	%rdi, -24(%rbp)
	movq	%rsi, -32(%rbp)
	movq	%rdx, -40(%rbp)
.L238:
	leaq	-24(%rbp), %rdx
	leaq	-32(%rbp), %rax
	movq	%rdx, %rsi
	movq	%rax, %rdi
	call	_ZN9__gnu_cxxmiIPSt4pairIiiESt6vectorIS2_SaIS2_EEEENS_17__normal_iteratorIT_T0_E15difference_typeERKSA_SD_
	cmpq	$16, %rax
	setg	%al
	testb	%al, %al
	je	.L235
	cmpq	$0, -40(%rbp)
	jne	.L237
	movq	-32(%rbp), %rdx
	movq	-32(%rbp), %rcx
	movq	-24(%rbp), %rax
	movq	%rcx, %rsi
	movq	%rax, %rdi
	call	_ZSt14__partial_sortIN9__gnu_cxx17__normal_iteratorIPSt4pairIiiESt6vectorIS3_SaIS3_EEEENS0_5__ops15_Iter_less_iterEEvT_SB_SB_T0_
	jmp	.L235
.L237:
	subq	$1, -40(%rbp)
	movq	-32(%rbp), %rdx
	movq	-24(%rbp), %rax
	movq	%rdx, %rsi
	movq	%rax, %rdi
	call	_ZSt27__unguarded_partition_pivotIN9__gnu_cxx17__normal_iteratorIPSt4pairIiiESt6vectorIS3_SaIS3_EEEENS0_5__ops15_Iter_less_iterEET_SB_SB_T0_
	movq	%rax, -8(%rbp)
	movq	-40(%rbp), %rdx
	movq	-32(%rbp), %rcx
	movq	-8(%rbp), %rax
	movq	%rcx, %rsi
	movq	%rax, %rdi
	call	_ZSt16__introsort_loopIN9__gnu_cxx17__normal_iteratorIPSt4pairIiiESt6vectorIS3_SaIS3_EEEElNS0_5__ops15_Iter_less_iterEEvT_SB_T0_T1_
	movq	-8(%rbp), %rax
	movq	%rax, -32(%rbp)
	jmp	.L238
.L235:
	leave
	.cfi_def_cfa 7, 8
	ret
	.cfi_endproc
.LFE9480:
	.size	_ZSt16__introsort_loopIN9__gnu_cxx17__normal_iteratorIPSt4pairIiiESt6vectorIS3_SaIS3_EEEElNS0_5__ops15_Iter_less_iterEEvT_SB_T0_T1_, .-_ZSt16__introsort_loopIN9__gnu_cxx17__normal_iteratorIPSt4pairIiiESt6vectorIS3_SaIS3_EEEElNS0_5__ops15_Iter_less_iterEEvT_SB_T0_T1_
	.section	.text._ZSt22__final_insertion_sortIN9__gnu_cxx17__normal_iteratorIPSt4pairIiiESt6vectorIS3_SaIS3_EEEENS0_5__ops15_Iter_less_iterEEvT_SB_T0_,"axG",@progbits,_ZSt22__final_insertion_sortIN9__gnu_cxx17__normal_iteratorIPSt4pairIiiESt6vectorIS3_SaIS3_EEEENS0_5__ops15_Iter_less_iterEEvT_SB_T0_,comdat
	.weak	_ZSt22__final_insertion_sortIN9__gnu_cxx17__normal_iteratorIPSt4pairIiiESt6vectorIS3_SaIS3_EEEENS0_5__ops15_Iter_less_iterEEvT_SB_T0_
	.type	_ZSt22__final_insertion_sortIN9__gnu_cxx17__normal_iteratorIPSt4pairIiiESt6vectorIS3_SaIS3_EEEENS0_5__ops15_Iter_less_iterEEvT_SB_T0_, @function
_ZSt22__final_insertion_sortIN9__gnu_cxx17__normal_iteratorIPSt4pairIiiESt6vectorIS3_SaIS3_EEEENS0_5__ops15_Iter_less_iterEEvT_SB_T0_:
.LFB9481:
	.cfi_startproc
	pushq	%rbp
	.cfi_def_cfa_offset 16
	.cfi_offset 6, -16
	movq	%rsp, %rbp
	.cfi_def_cfa_register 6
	subq	$16, %rsp
	movq	%rdi, -8(%rbp)
	movq	%rsi, -16(%rbp)
	leaq	-8(%rbp), %rdx
	leaq	-16(%rbp), %rax
	movq	%rdx, %rsi
	movq	%rax, %rdi
	call	_ZN9__gnu_cxxmiIPSt4pairIiiESt6vectorIS2_SaIS2_EEEENS_17__normal_iteratorIT_T0_E15difference_typeERKSA_SD_
	cmpq	$16, %rax
	setg	%al
	testb	%al, %al
	je	.L240
	leaq	-8(%rbp), %rax
	movl	$16, %esi
	movq	%rax, %rdi
	call	_ZNK9__gnu_cxx17__normal_iteratorIPSt4pairIiiESt6vectorIS2_SaIS2_EEEplEl
	movq	%rax, %rdx
	movq	-8(%rbp), %rax
	movq	%rdx, %rsi
	movq	%rax, %rdi
	call	_ZSt16__insertion_sortIN9__gnu_cxx17__normal_iteratorIPSt4pairIiiESt6vectorIS3_SaIS3_EEEENS0_5__ops15_Iter_less_iterEEvT_SB_T0_
	leaq	-8(%rbp), %rax
	movl	$16, %esi
	movq	%rax, %rdi
	call	_ZNK9__gnu_cxx17__normal_iteratorIPSt4pairIiiESt6vectorIS2_SaIS2_EEEplEl
	movq	%rax, %rdx
	movq	-16(%rbp), %rax
	movq	%rax, %rsi
	movq	%rdx, %rdi
	call	_ZSt26__unguarded_insertion_sortIN9__gnu_cxx17__normal_iteratorIPSt4pairIiiESt6vectorIS3_SaIS3_EEEENS0_5__ops15_Iter_less_iterEEvT_SB_T0_
	jmp	.L242
.L240:
	movq	-16(%rbp), %rdx
	movq	-8(%rbp), %rax
	movq	%rdx, %rsi
	movq	%rax, %rdi
	call	_ZSt16__insertion_sortIN9__gnu_cxx17__normal_iteratorIPSt4pairIiiESt6vectorIS3_SaIS3_EEEENS0_5__ops15_Iter_less_iterEEvT_SB_T0_
.L242:
	nop
	leave
	.cfi_def_cfa 7, 8
	ret
	.cfi_endproc
.LFE9481:
	.size	_ZSt22__final_insertion_sortIN9__gnu_cxx17__normal_iteratorIPSt4pairIiiESt6vectorIS3_SaIS3_EEEENS0_5__ops15_Iter_less_iterEEvT_SB_T0_, .-_ZSt22__final_insertion_sortIN9__gnu_cxx17__normal_iteratorIPSt4pairIiiESt6vectorIS3_SaIS3_EEEENS0_5__ops15_Iter_less_iterEEvT_SB_T0_
	.section	.text._ZNKSt16reverse_iteratorIN9__gnu_cxx17__normal_iteratorIPSt4pairIiiESt6vectorIS3_SaIS3_EEEEE4baseEv,"axG",@progbits,_ZNKSt16reverse_iteratorIN9__gnu_cxx17__normal_iteratorIPSt4pairIiiESt6vectorIS3_SaIS3_EEEEE4baseEv,comdat
	.align 2
	.weak	_ZNKSt16reverse_iteratorIN9__gnu_cxx17__normal_iteratorIPSt4pairIiiESt6vectorIS3_SaIS3_EEEEE4baseEv
	.type	_ZNKSt16reverse_iteratorIN9__gnu_cxx17__normal_iteratorIPSt4pairIiiESt6vectorIS3_SaIS3_EEEEE4baseEv, @function
_ZNKSt16reverse_iteratorIN9__gnu_cxx17__normal_iteratorIPSt4pairIiiESt6vectorIS3_SaIS3_EEEEE4baseEv:
.LFB9482:
	.cfi_startproc
	pushq	%rbp
	.cfi_def_cfa_offset 16
	.cfi_offset 6, -16
	movq	%rsp, %rbp
	.cfi_def_cfa_register 6
	movq	%rdi, -8(%rbp)
	movq	-8(%rbp), %rax
	movq	(%rax), %rax
	popq	%rbp
	.cfi_def_cfa 7, 8
	ret
	.cfi_endproc
.LFE9482:
	.size	_ZNKSt16reverse_iteratorIN9__gnu_cxx17__normal_iteratorIPSt4pairIiiESt6vectorIS3_SaIS3_EEEEE4baseEv, .-_ZNKSt16reverse_iteratorIN9__gnu_cxx17__normal_iteratorIPSt4pairIiiESt6vectorIS3_SaIS3_EEEEE4baseEv
	.section	.text._ZN9__gnu_cxxeqIPSt4pairIiiESt6vectorIS2_SaIS2_EEEEbRKNS_17__normal_iteratorIT_T0_EESC_,"axG",@progbits,_ZN9__gnu_cxxeqIPSt4pairIiiESt6vectorIS2_SaIS2_EEEEbRKNS_17__normal_iteratorIT_T0_EESC_,comdat
	.weak	_ZN9__gnu_cxxeqIPSt4pairIiiESt6vectorIS2_SaIS2_EEEEbRKNS_17__normal_iteratorIT_T0_EESC_
	.type	_ZN9__gnu_cxxeqIPSt4pairIiiESt6vectorIS2_SaIS2_EEEEbRKNS_17__normal_iteratorIT_T0_EESC_, @function
_ZN9__gnu_cxxeqIPSt4pairIiiESt6vectorIS2_SaIS2_EEEEbRKNS_17__normal_iteratorIT_T0_EESC_:
.LFB9483:
	.cfi_startproc
	pushq	%rbp
	.cfi_def_cfa_offset 16
	.cfi_offset 6, -16
	movq	%rsp, %rbp
	.cfi_def_cfa_register 6
	pushq	%rbx
	subq	$24, %rsp
	.cfi_offset 3, -24
	movq	%rdi, -24(%rbp)
	movq	%rsi, -32(%rbp)
	movq	-24(%rbp), %rax
	movq	%rax, %rdi
	call	_ZNK9__gnu_cxx17__normal_iteratorIPSt4pairIiiESt6vectorIS2_SaIS2_EEE4baseEv
	movq	(%rax), %rbx
	movq	-32(%rbp), %rax
	movq	%rax, %rdi
	call	_ZNK9__gnu_cxx17__normal_iteratorIPSt4pairIiiESt6vectorIS2_SaIS2_EEE4baseEv
	movq	(%rax), %rax
	cmpq	%rax, %rbx
	sete	%al
	addq	$24, %rsp
	popq	%rbx
	popq	%rbp
	.cfi_def_cfa 7, 8
	ret
	.cfi_endproc
.LFE9483:
	.size	_ZN9__gnu_cxxeqIPSt4pairIiiESt6vectorIS2_SaIS2_EEEEbRKNS_17__normal_iteratorIT_T0_EESC_, .-_ZN9__gnu_cxxeqIPSt4pairIiiESt6vectorIS2_SaIS2_EEEEbRKNS_17__normal_iteratorIT_T0_EESC_
	.section	.text._ZNSt7__cxx1110_List_baseIiSaIiEE11_M_get_nodeEv,"axG",@progbits,_ZNSt7__cxx1110_List_baseIiSaIiEE11_M_get_nodeEv,comdat
	.align 2
	.weak	_ZNSt7__cxx1110_List_baseIiSaIiEE11_M_get_nodeEv
	.type	_ZNSt7__cxx1110_List_baseIiSaIiEE11_M_get_nodeEv, @function
_ZNSt7__cxx1110_List_baseIiSaIiEE11_M_get_nodeEv:
.LFB9575:
	.cfi_startproc
	pushq	%rbp
	.cfi_def_cfa_offset 16
	.cfi_offset 6, -16
	movq	%rsp, %rbp
	.cfi_def_cfa_register 6
	subq	$16, %rsp
	movq	%rdi, -8(%rbp)
	movq	-8(%rbp), %rax
	movl	$1, %esi
	movq	%rax, %rdi
	call	_ZNSt16allocator_traitsISaISt10_List_nodeIiEEE8allocateERS2_m
	leave
	.cfi_def_cfa 7, 8
	ret
	.cfi_endproc
.LFE9575:
	.size	_ZNSt7__cxx1110_List_baseIiSaIiEE11_M_get_nodeEv, .-_ZNSt7__cxx1110_List_baseIiSaIiEE11_M_get_nodeEv
	.section	.text._ZNSt15__allocated_ptrISaISt10_List_nodeIiEEEC2ERS2_PS1_,"axG",@progbits,_ZNSt15__allocated_ptrISaISt10_List_nodeIiEEEC5ERS2_PS1_,comdat
	.align 2
	.weak	_ZNSt15__allocated_ptrISaISt10_List_nodeIiEEEC2ERS2_PS1_
	.type	_ZNSt15__allocated_ptrISaISt10_List_nodeIiEEEC2ERS2_PS1_, @function
_ZNSt15__allocated_ptrISaISt10_List_nodeIiEEEC2ERS2_PS1_:
.LFB9577:
	.cfi_startproc
	pushq	%rbp
	.cfi_def_cfa_offset 16
	.cfi_offset 6, -16
	movq	%rsp, %rbp
	.cfi_def_cfa_register 6
	subq	$32, %rsp
	movq	%rdi, -8(%rbp)
	movq	%rsi, -16(%rbp)
	movq	%rdx, -24(%rbp)
	movq	-16(%rbp), %rax
	movq	%rax, %rdi
	call	_ZSt11__addressofISaISt10_List_nodeIiEEEPT_RS3_
	movq	-8(%rbp), %rdx
	movq	%rax, (%rdx)
	movq	-8(%rbp), %rax
	movq	-24(%rbp), %rdx
	movq	%rdx, 8(%rax)
	nop
	leave
	.cfi_def_cfa 7, 8
	ret
	.cfi_endproc
.LFE9577:
	.size	_ZNSt15__allocated_ptrISaISt10_List_nodeIiEEEC2ERS2_PS1_, .-_ZNSt15__allocated_ptrISaISt10_List_nodeIiEEEC2ERS2_PS1_
	.weak	_ZNSt15__allocated_ptrISaISt10_List_nodeIiEEEC1ERS2_PS1_
	.set	_ZNSt15__allocated_ptrISaISt10_List_nodeIiEEEC1ERS2_PS1_,_ZNSt15__allocated_ptrISaISt10_List_nodeIiEEEC2ERS2_PS1_
	.section	.text._ZNSt15__allocated_ptrISaISt10_List_nodeIiEEED2Ev,"axG",@progbits,_ZNSt15__allocated_ptrISaISt10_List_nodeIiEEED5Ev,comdat
	.align 2
	.weak	_ZNSt15__allocated_ptrISaISt10_List_nodeIiEEED2Ev
	.type	_ZNSt15__allocated_ptrISaISt10_List_nodeIiEEED2Ev, @function
_ZNSt15__allocated_ptrISaISt10_List_nodeIiEEED2Ev:
.LFB9580:
	.cfi_startproc
	.cfi_personality 0x9b,DW.ref.__gxx_personality_v0
	.cfi_lsda 0x1b,.LLSDA9580
	pushq	%rbp
	.cfi_def_cfa_offset 16
	.cfi_offset 6, -16
	movq	%rsp, %rbp
	.cfi_def_cfa_register 6
	subq	$16, %rsp
	movq	%rdi, -8(%rbp)
	movq	-8(%rbp), %rax
	movq	8(%rax), %rax
	testq	%rax, %rax
	je	.L252
	movq	-8(%rbp), %rax
	movq	8(%rax), %rcx
	movq	-8(%rbp), %rax
	movq	(%rax), %rax
	movl	$1, %edx
	movq	%rcx, %rsi
	movq	%rax, %rdi
	call	_ZNSt16allocator_traitsISaISt10_List_nodeIiEEE10deallocateERS2_PS1_m
.L252:
	nop
	leave
	.cfi_def_cfa 7, 8
	ret
	.cfi_endproc
.LFE9580:
	.section	.gcc_except_table
.LLSDA9580:
	.byte	0xff
	.byte	0xff
	.byte	0x1
	.uleb128 .LLSDACSE9580-.LLSDACSB9580
.LLSDACSB9580:
.LLSDACSE9580:
	.section	.text._ZNSt15__allocated_ptrISaISt10_List_nodeIiEEED2Ev,"axG",@progbits,_ZNSt15__allocated_ptrISaISt10_List_nodeIiEEED5Ev,comdat
	.size	_ZNSt15__allocated_ptrISaISt10_List_nodeIiEEED2Ev, .-_ZNSt15__allocated_ptrISaISt10_List_nodeIiEEED2Ev
	.weak	_ZNSt15__allocated_ptrISaISt10_List_nodeIiEEED1Ev
	.set	_ZNSt15__allocated_ptrISaISt10_List_nodeIiEEED1Ev,_ZNSt15__allocated_ptrISaISt10_List_nodeIiEEED2Ev
	.section	.text._ZNSt16allocator_traitsISaISt10_List_nodeIiEEE9constructIiJRKiEEEvRS2_PT_DpOT0_,"axG",@progbits,_ZNSt16allocator_traitsISaISt10_List_nodeIiEEE9constructIiJRKiEEEvRS2_PT_DpOT0_,comdat
	.weak	_ZNSt16allocator_traitsISaISt10_List_nodeIiEEE9constructIiJRKiEEEvRS2_PT_DpOT0_
	.type	_ZNSt16allocator_traitsISaISt10_List_nodeIiEEE9constructIiJRKiEEEvRS2_PT_DpOT0_, @function
_ZNSt16allocator_traitsISaISt10_List_nodeIiEEE9constructIiJRKiEEEvRS2_PT_DpOT0_:
.LFB9582:
	.cfi_startproc
	pushq	%rbp
	.cfi_def_cfa_offset 16
	.cfi_offset 6, -16
	movq	%rsp, %rbp
	.cfi_def_cfa_register 6
	subq	$32, %rsp
	movq	%rdi, -8(%rbp)
	movq	%rsi, -16(%rbp)
	movq	%rdx, -24(%rbp)
	movq	-24(%rbp), %rax
	movq	%rax, %rdi
	call	_ZSt7forwardIRKiEOT_RNSt16remove_referenceIS2_E4typeE
	movq	%rax, %rdx
	movq	-16(%rbp), %rcx
	movq	-8(%rbp), %rax
	movq	%rcx, %rsi
	movq	%rax, %rdi
	call	_ZN9__gnu_cxx13new_allocatorISt10_List_nodeIiEE9constructIiJRKiEEEvPT_DpOT0_
	nop
	leave
	.cfi_def_cfa 7, 8
	ret
	.cfi_endproc
.LFE9582:
	.size	_ZNSt16allocator_traitsISaISt10_List_nodeIiEEE9constructIiJRKiEEEvRS2_PT_DpOT0_, .-_ZNSt16allocator_traitsISaISt10_List_nodeIiEEE9constructIiJRKiEEEvRS2_PT_DpOT0_
	.section	.text._ZNSt15__allocated_ptrISaISt10_List_nodeIiEEEaSEDn,"axG",@progbits,_ZNSt15__allocated_ptrISaISt10_List_nodeIiEEEaSEDn,comdat
	.align 2
	.weak	_ZNSt15__allocated_ptrISaISt10_List_nodeIiEEEaSEDn
	.type	_ZNSt15__allocated_ptrISaISt10_List_nodeIiEEEaSEDn, @function
_ZNSt15__allocated_ptrISaISt10_List_nodeIiEEEaSEDn:
.LFB9583:
	.cfi_startproc
	pushq	%rbp
	.cfi_def_cfa_offset 16
	.cfi_offset 6, -16
	movq	%rsp, %rbp
	.cfi_def_cfa_register 6
	movq	%rdi, -8(%rbp)
	movq	%rsi, -16(%rbp)
	movq	-8(%rbp), %rax
	movq	$0, 8(%rax)
	movq	-8(%rbp), %rax
	popq	%rbp
	.cfi_def_cfa 7, 8
	ret
	.cfi_endproc
.LFE9583:
	.size	_ZNSt15__allocated_ptrISaISt10_List_nodeIiEEEaSEDn, .-_ZNSt15__allocated_ptrISaISt10_List_nodeIiEEEaSEDn
	.section	.text._ZNSt11_Deque_baseIiSaIiEE11_Deque_implC2Ev,"axG",@progbits,_ZNSt11_Deque_baseIiSaIiEE11_Deque_implC5Ev,comdat
	.align 2
	.weak	_ZNSt11_Deque_baseIiSaIiEE11_Deque_implC2Ev
	.type	_ZNSt11_Deque_baseIiSaIiEE11_Deque_implC2Ev, @function
_ZNSt11_Deque_baseIiSaIiEE11_Deque_implC2Ev:
.LFB9585:
	.cfi_startproc
	pushq	%rbp
	.cfi_def_cfa_offset 16
	.cfi_offset 6, -16
	movq	%rsp, %rbp
	.cfi_def_cfa_register 6
	subq	$16, %rsp
	movq	%rdi, -8(%rbp)
	movq	-8(%rbp), %rax
	movq	%rax, %rdi
	call	_ZNSaIiEC2Ev
	movq	-8(%rbp), %rax
	movq	$0, (%rax)
	movq	-8(%rbp), %rax
	movq	$0, 8(%rax)
	movq	-8(%rbp), %rax
	addq	$16, %rax
	movq	%rax, %rdi
	call	_ZNSt15_Deque_iteratorIiRiPiEC1Ev
	movq	-8(%rbp), %rax
	addq	$48, %rax
	movq	%rax, %rdi
	call	_ZNSt15_Deque_iteratorIiRiPiEC1Ev
	nop
	leave
	.cfi_def_cfa 7, 8
	ret
	.cfi_endproc
.LFE9585:
	.size	_ZNSt11_Deque_baseIiSaIiEE11_Deque_implC2Ev, .-_ZNSt11_Deque_baseIiSaIiEE11_Deque_implC2Ev
	.weak	_ZNSt11_Deque_baseIiSaIiEE11_Deque_implC1Ev
	.set	_ZNSt11_Deque_baseIiSaIiEE11_Deque_implC1Ev,_ZNSt11_Deque_baseIiSaIiEE11_Deque_implC2Ev
	.section	.text._ZNSt11_Deque_baseIiSaIiEE17_M_initialize_mapEm,"axG",@progbits,_ZNSt11_Deque_baseIiSaIiEE17_M_initialize_mapEm,comdat
	.align 2
	.weak	_ZNSt11_Deque_baseIiSaIiEE17_M_initialize_mapEm
	.type	_ZNSt11_Deque_baseIiSaIiEE17_M_initialize_mapEm, @function
_ZNSt11_Deque_baseIiSaIiEE17_M_initialize_mapEm:
.LFB9587:
	.cfi_startproc
	.cfi_personality 0x9b,DW.ref.__gxx_personality_v0
	.cfi_lsda 0x1b,.LLSDA9587
	pushq	%rbp
	.cfi_def_cfa_offset 16
	.cfi_offset 6, -16
	movq	%rsp, %rbp
	.cfi_def_cfa_register 6
	pushq	%rbx
	subq	$72, %rsp
	.cfi_offset 3, -24
	movq	%rdi, -72(%rbp)
	movq	%rsi, -80(%rbp)
	movl	$4, %edi
	call	_ZSt16__deque_buf_sizem
	movq	%rax, %rbx
	movq	-80(%rbp), %rax
	movl	$0, %edx
	divq	%rbx
	addq	$1, %rax
	movq	%rax, -24(%rbp)
	movq	-24(%rbp), %rax
	addq	$2, %rax
	movq	%rax, -56(%rbp)
	movq	$8, -48(%rbp)
	leaq	-56(%rbp), %rdx
	leaq	-48(%rbp), %rax
	movq	%rdx, %rsi
	movq	%rax, %rdi
	call	_ZSt3maxImERKT_S2_S2_
	movq	(%rax), %rdx
	movq	-72(%rbp), %rax
	movq	%rdx, 8(%rax)
	movq	-72(%rbp), %rax
	movq	8(%rax), %rdx
	movq	-72(%rbp), %rax
	movq	%rdx, %rsi
	movq	%rax, %rdi
.LEHB13:
	call	_ZNSt11_Deque_baseIiSaIiEE15_M_allocate_mapEm
.LEHE13:
	movq	-72(%rbp), %rdx
	movq	%rax, (%rdx)
	movq	-72(%rbp), %rax
	movq	(%rax), %rdx
	movq	-72(%rbp), %rax
	movq	8(%rax), %rax
	subq	-24(%rbp), %rax
	shrq	%rax
	salq	$3, %rax
	addq	%rdx, %rax
	movq	%rax, -32(%rbp)
	movq	-24(%rbp), %rax
	leaq	0(,%rax,8), %rdx
	movq	-32(%rbp), %rax
	addq	%rdx, %rax
	movq	%rax, -40(%rbp)
	movq	-40(%rbp), %rdx
	movq	-32(%rbp), %rcx
	movq	-72(%rbp), %rax
	movq	%rcx, %rsi
	movq	%rax, %rdi
.LEHB14:
	call	_ZNSt11_Deque_baseIiSaIiEE15_M_create_nodesEPPiS3_
.LEHE14:
	movq	-72(%rbp), %rax
	leaq	16(%rax), %rdx
	movq	-32(%rbp), %rax
	movq	%rax, %rsi
	movq	%rdx, %rdi
	call	_ZNSt15_Deque_iteratorIiRiPiE11_M_set_nodeEPS1_
	movq	-72(%rbp), %rax
	addq	$48, %rax
	movq	-40(%rbp), %rdx
	subq	$8, %rdx
	movq	%rdx, %rsi
	movq	%rax, %rdi
	call	_ZNSt15_Deque_iteratorIiRiPiE11_M_set_nodeEPS1_
	movq	-72(%rbp), %rax
	movq	24(%rax), %rdx
	movq	-72(%rbp), %rax
	movq	%rdx, 16(%rax)
	movq	-72(%rbp), %rax
	movq	56(%rax), %rbx
	movl	$4, %edi
	call	_ZSt16__deque_buf_sizem
	movq	%rax, %rcx
	movq	-80(%rbp), %rax
	movl	$0, %edx
	divq	%rcx
	movq	%rdx, %rcx
	movq	%rcx, %rax
	salq	$2, %rax
	leaq	(%rbx,%rax), %rdx
	movq	-72(%rbp), %rax
	movq	%rdx, 48(%rax)
	jmp	.L262
.L260:
	movq	%rax, %rdi
	call	__cxa_begin_catch@PLT
	movq	-72(%rbp), %rax
	movq	8(%rax), %rdx
	movq	-72(%rbp), %rax
	movq	(%rax), %rcx
	movq	-72(%rbp), %rax
	movq	%rcx, %rsi
	movq	%rax, %rdi
	call	_ZNSt11_Deque_baseIiSaIiEE17_M_deallocate_mapEPPim
	movq	-72(%rbp), %rax
	movq	$0, (%rax)
	movq	-72(%rbp), %rax
	movq	$0, 8(%rax)
.LEHB15:
	call	__cxa_rethrow@PLT
.LEHE15:
.L261:
	movq	%rax, %rbx
	call	__cxa_end_catch@PLT
	movq	%rbx, %rax
	movq	%rax, %rdi
.LEHB16:
	call	_Unwind_Resume@PLT
.LEHE16:
.L262:
	addq	$72, %rsp
	popq	%rbx
	popq	%rbp
	.cfi_def_cfa 7, 8
	ret
	.cfi_endproc
.LFE9587:
	.section	.gcc_except_table
	.align 4
.LLSDA9587:
	.byte	0xff
	.byte	0x9b
	.uleb128 .LLSDATT9587-.LLSDATTD9587
.LLSDATTD9587:
	.byte	0x1
	.uleb128 .LLSDACSE9587-.LLSDACSB9587
.LLSDACSB9587:
	.uleb128 .LEHB13-.LFB9587
	.uleb128 .LEHE13-.LEHB13
	.uleb128 0
	.uleb128 0
	.uleb128 .LEHB14-.LFB9587
	.uleb128 .LEHE14-.LEHB14
	.uleb128 .L260-.LFB9587
	.uleb128 0x1
	.uleb128 .LEHB15-.LFB9587
	.uleb128 .LEHE15-.LEHB15
	.uleb128 .L261-.LFB9587
	.uleb128 0
	.uleb128 .LEHB16-.LFB9587
	.uleb128 .LEHE16-.LEHB16
	.uleb128 0
	.uleb128 0
.LLSDACSE9587:
	.byte	0x1
	.byte	0
	.align 4
	.long	0

.LLSDATT9587:
	.section	.text._ZNSt11_Deque_baseIiSaIiEE17_M_initialize_mapEm,"axG",@progbits,_ZNSt11_Deque_baseIiSaIiEE17_M_initialize_mapEm,comdat
	.size	_ZNSt11_Deque_baseIiSaIiEE17_M_initialize_mapEm, .-_ZNSt11_Deque_baseIiSaIiEE17_M_initialize_mapEm
	.section	.text._ZN9__gnu_cxx13new_allocatorIiED2Ev,"axG",@progbits,_ZN9__gnu_cxx13new_allocatorIiED5Ev,comdat
	.align 2
	.weak	_ZN9__gnu_cxx13new_allocatorIiED2Ev
	.type	_ZN9__gnu_cxx13new_allocatorIiED2Ev, @function
_ZN9__gnu_cxx13new_allocatorIiED2Ev:
.LFB9589:
	.cfi_startproc
	pushq	%rbp
	.cfi_def_cfa_offset 16
	.cfi_offset 6, -16
	movq	%rsp, %rbp
	.cfi_def_cfa_register 6
	movq	%rdi, -8(%rbp)
	nop
	popq	%rbp
	.cfi_def_cfa 7, 8
	ret
	.cfi_endproc
.LFE9589:
	.size	_ZN9__gnu_cxx13new_allocatorIiED2Ev, .-_ZN9__gnu_cxx13new_allocatorIiED2Ev
	.weak	_ZN9__gnu_cxx13new_allocatorIiED1Ev
	.set	_ZN9__gnu_cxx13new_allocatorIiED1Ev,_ZN9__gnu_cxx13new_allocatorIiED2Ev
	.section	.text._ZNSt11_Deque_baseIiSaIiEE18_M_deallocate_nodeEPi,"axG",@progbits,_ZNSt11_Deque_baseIiSaIiEE18_M_deallocate_nodeEPi,comdat
	.align 2
	.weak	_ZNSt11_Deque_baseIiSaIiEE18_M_deallocate_nodeEPi
	.type	_ZNSt11_Deque_baseIiSaIiEE18_M_deallocate_nodeEPi, @function
_ZNSt11_Deque_baseIiSaIiEE18_M_deallocate_nodeEPi:
.LFB9591:
	.cfi_startproc
	.cfi_personality 0x9b,DW.ref.__gxx_personality_v0
	.cfi_lsda 0x1b,.LLSDA9591
	pushq	%rbp
	.cfi_def_cfa_offset 16
	.cfi_offset 6, -16
	movq	%rsp, %rbp
	.cfi_def_cfa_register 6
	subq	$16, %rsp
	movq	%rdi, -8(%rbp)
	movq	%rsi, -16(%rbp)
	movl	$4, %edi
	call	_ZSt16__deque_buf_sizem
	movq	%rax, %rdx
	movq	-8(%rbp), %rax
	movq	-16(%rbp), %rcx
	movq	%rcx, %rsi
	movq	%rax, %rdi
	call	_ZNSt16allocator_traitsISaIiEE10deallocateERS0_Pim
	nop
	leave
	.cfi_def_cfa 7, 8
	ret
	.cfi_endproc
.LFE9591:
	.section	.gcc_except_table
.LLSDA9591:
	.byte	0xff
	.byte	0xff
	.byte	0x1
	.uleb128 .LLSDACSE9591-.LLSDACSB9591
.LLSDACSB9591:
.LLSDACSE9591:
	.section	.text._ZNSt11_Deque_baseIiSaIiEE18_M_deallocate_nodeEPi,"axG",@progbits,_ZNSt11_Deque_baseIiSaIiEE18_M_deallocate_nodeEPi,comdat
	.size	_ZNSt11_Deque_baseIiSaIiEE18_M_deallocate_nodeEPi, .-_ZNSt11_Deque_baseIiSaIiEE18_M_deallocate_nodeEPi
	.section	.text._ZNKSt11_Deque_baseIiSaIiEE20_M_get_map_allocatorEv,"axG",@progbits,_ZNKSt11_Deque_baseIiSaIiEE20_M_get_map_allocatorEv,comdat
	.align 2
	.weak	_ZNKSt11_Deque_baseIiSaIiEE20_M_get_map_allocatorEv
	.type	_ZNKSt11_Deque_baseIiSaIiEE20_M_get_map_allocatorEv, @function
_ZNKSt11_Deque_baseIiSaIiEE20_M_get_map_allocatorEv:
.LFB9592:
	.cfi_startproc
	pushq	%rbp
	.cfi_def_cfa_offset 16
	.cfi_offset 6, -16
	movq	%rsp, %rbp
	.cfi_def_cfa_register 6
	subq	$16, %rsp
	movq	%rdi, -8(%rbp)
	movq	%rsi, -16(%rbp)
	movq	-16(%rbp), %rax
	movq	%rax, %rdi
	call	_ZNKSt11_Deque_baseIiSaIiEE19_M_get_Tp_allocatorEv
	movq	%rax, %rdx
	movq	-8(%rbp), %rax
	movq	%rdx, %rsi
	movq	%rax, %rdi
	call	_ZNSaIPiEC1IiEERKSaIT_E
	movq	-8(%rbp), %rax
	leave
	.cfi_def_cfa 7, 8
	ret
	.cfi_endproc
.LFE9592:
	.size	_ZNKSt11_Deque_baseIiSaIiEE20_M_get_map_allocatorEv, .-_ZNKSt11_Deque_baseIiSaIiEE20_M_get_map_allocatorEv
	.section	.text._ZNSaIPiED2Ev,"axG",@progbits,_ZNSaIPiED5Ev,comdat
	.align 2
	.weak	_ZNSaIPiED2Ev
	.type	_ZNSaIPiED2Ev, @function
_ZNSaIPiED2Ev:
.LFB9594:
	.cfi_startproc
	pushq	%rbp
	.cfi_def_cfa_offset 16
	.cfi_offset 6, -16
	movq	%rsp, %rbp
	.cfi_def_cfa_register 6
	subq	$16, %rsp
	movq	%rdi, -8(%rbp)
	movq	-8(%rbp), %rax
	movq	%rax, %rdi
	call	_ZN9__gnu_cxx13new_allocatorIPiED2Ev
	nop
	leave
	.cfi_def_cfa 7, 8
	ret
	.cfi_endproc
.LFE9594:
	.size	_ZNSaIPiED2Ev, .-_ZNSaIPiED2Ev
	.weak	_ZNSaIPiED1Ev
	.set	_ZNSaIPiED1Ev,_ZNSaIPiED2Ev
	.section	.text._ZNSt16allocator_traitsISaIPiEE10deallocateERS1_PS0_m,"axG",@progbits,_ZNSt16allocator_traitsISaIPiEE10deallocateERS1_PS0_m,comdat
	.weak	_ZNSt16allocator_traitsISaIPiEE10deallocateERS1_PS0_m
	.type	_ZNSt16allocator_traitsISaIPiEE10deallocateERS1_PS0_m, @function
_ZNSt16allocator_traitsISaIPiEE10deallocateERS1_PS0_m:
.LFB9599:
	.cfi_startproc
	pushq	%rbp
	.cfi_def_cfa_offset 16
	.cfi_offset 6, -16
	movq	%rsp, %rbp
	.cfi_def_cfa_register 6
	subq	$32, %rsp
	movq	%rdi, -8(%rbp)
	movq	%rsi, -16(%rbp)
	movq	%rdx, -24(%rbp)
	movq	-24(%rbp), %rdx
	movq	-16(%rbp), %rcx
	movq	-8(%rbp), %rax
	movq	%rcx, %rsi
	movq	%rax, %rdi
	call	_ZN9__gnu_cxx13new_allocatorIPiE10deallocateEPS1_m
	nop
	leave
	.cfi_def_cfa 7, 8
	ret
	.cfi_endproc
.LFE9599:
	.size	_ZNSt16allocator_traitsISaIPiEE10deallocateERS1_PS0_m, .-_ZNSt16allocator_traitsISaIPiEE10deallocateERS1_PS0_m
	.section	.text._ZN9__gnu_cxx13new_allocatorIiE9constructIiJRKiEEEvPT_DpOT0_,"axG",@progbits,_ZN9__gnu_cxx13new_allocatorIiE9constructIiJRKiEEEvPT_DpOT0_,comdat
	.align 2
	.weak	_ZN9__gnu_cxx13new_allocatorIiE9constructIiJRKiEEEvPT_DpOT0_
	.type	_ZN9__gnu_cxx13new_allocatorIiE9constructIiJRKiEEEvPT_DpOT0_, @function
_ZN9__gnu_cxx13new_allocatorIiE9constructIiJRKiEEEvPT_DpOT0_:
.LFB9602:
	.cfi_startproc
	pushq	%rbp
	.cfi_def_cfa_offset 16
	.cfi_offset 6, -16
	movq	%rsp, %rbp
	.cfi_def_cfa_register 6
	pushq	%rbx
	subq	$40, %rsp
	.cfi_offset 3, -24
	movq	%rdi, -24(%rbp)
	movq	%rsi, -32(%rbp)
	movq	%rdx, -40(%rbp)
	movq	-40(%rbp), %rax
	movq	%rax, %rdi
	call	_ZSt7forwardIRKiEOT_RNSt16remove_referenceIS2_E4typeE
	movl	(%rax), %ebx
	movq	-32(%rbp), %rax
	movq	%rax, %rsi
	movl	$4, %edi
	call	_ZnwmPv
	movl	%ebx, (%rax)
	nop
	addq	$40, %rsp
	popq	%rbx
	popq	%rbp
	.cfi_def_cfa 7, 8
	ret
	.cfi_endproc
.LFE9602:
	.size	_ZN9__gnu_cxx13new_allocatorIiE9constructIiJRKiEEEvPT_DpOT0_, .-_ZN9__gnu_cxx13new_allocatorIiE9constructIiJRKiEEEvPT_DpOT0_
	.section	.text._ZNKSt5dequeIiSaIiEE4sizeEv,"axG",@progbits,_ZNKSt5dequeIiSaIiEE4sizeEv,comdat
	.align 2
	.weak	_ZNKSt5dequeIiSaIiEE4sizeEv
	.type	_ZNKSt5dequeIiSaIiEE4sizeEv, @function
_ZNKSt5dequeIiSaIiEE4sizeEv:
.LFB9603:
	.cfi_startproc
	pushq	%rbp
	.cfi_def_cfa_offset 16
	.cfi_offset 6, -16
	movq	%rsp, %rbp
	.cfi_def_cfa_register 6
	subq	$16, %rsp
	movq	%rdi, -8(%rbp)
	movq	-8(%rbp), %rax
	leaq	16(%rax), %rdx
	movq	-8(%rbp), %rax
	addq	$48, %rax
	movq	%rdx, %rsi
	movq	%rax, %rdi
	call	_ZStmiIiRiPiENSt15_Deque_iteratorIT_T0_T1_E15difference_typeERKS6_S9_
	leave
	.cfi_def_cfa 7, 8
	ret
	.cfi_endproc
.LFE9603:
	.size	_ZNKSt5dequeIiSaIiEE4sizeEv, .-_ZNKSt5dequeIiSaIiEE4sizeEv
	.section	.text._ZNKSt5dequeIiSaIiEE8max_sizeEv,"axG",@progbits,_ZNKSt5dequeIiSaIiEE8max_sizeEv,comdat
	.align 2
	.weak	_ZNKSt5dequeIiSaIiEE8max_sizeEv
	.type	_ZNKSt5dequeIiSaIiEE8max_sizeEv, @function
_ZNKSt5dequeIiSaIiEE8max_sizeEv:
.LFB9604:
	.cfi_startproc
	pushq	%rbp
	.cfi_def_cfa_offset 16
	.cfi_offset 6, -16
	movq	%rsp, %rbp
	.cfi_def_cfa_register 6
	subq	$16, %rsp
	movq	%rdi, -8(%rbp)
	movq	-8(%rbp), %rax
	movq	%rax, %rdi
	call	_ZNKSt11_Deque_baseIiSaIiEE19_M_get_Tp_allocatorEv
	movq	%rax, %rdi
	call	_ZNSt5dequeIiSaIiEE11_S_max_sizeERKS0_
	leave
	.cfi_def_cfa 7, 8
	ret
	.cfi_endproc
.LFE9604:
	.size	_ZNKSt5dequeIiSaIiEE8max_sizeEv, .-_ZNKSt5dequeIiSaIiEE8max_sizeEv
	.section	.text._ZNSt5dequeIiSaIiEE22_M_reserve_map_at_backEm,"axG",@progbits,_ZNSt5dequeIiSaIiEE22_M_reserve_map_at_backEm,comdat
	.align 2
	.weak	_ZNSt5dequeIiSaIiEE22_M_reserve_map_at_backEm
	.type	_ZNSt5dequeIiSaIiEE22_M_reserve_map_at_backEm, @function
_ZNSt5dequeIiSaIiEE22_M_reserve_map_at_backEm:
.LFB9605:
	.cfi_startproc
	pushq	%rbp
	.cfi_def_cfa_offset 16
	.cfi_offset 6, -16
	movq	%rsp, %rbp
	.cfi_def_cfa_register 6
	subq	$16, %rsp
	movq	%rdi, -8(%rbp)
	movq	%rsi, -16(%rbp)
	movq	-16(%rbp), %rax
	leaq	1(%rax), %rsi
	movq	-8(%rbp), %rax
	movq	8(%rax), %rdx
	movq	-8(%rbp), %rax
	movq	72(%rax), %rcx
	movq	-8(%rbp), %rax
	movq	(%rax), %rax
	subq	%rax, %rcx
	movq	%rcx, %rax
	sarq	$3, %rax
	subq	%rax, %rdx
	movq	%rdx, %rax
	cmpq	%rax, %rsi
	jbe	.L276
	movq	-16(%rbp), %rcx
	movq	-8(%rbp), %rax
	movl	$0, %edx
	movq	%rcx, %rsi
	movq	%rax, %rdi
	call	_ZNSt5dequeIiSaIiEE17_M_reallocate_mapEmb
.L276:
	nop
	leave
	.cfi_def_cfa 7, 8
	ret
	.cfi_endproc
.LFE9605:
	.size	_ZNSt5dequeIiSaIiEE22_M_reserve_map_at_backEm, .-_ZNSt5dequeIiSaIiEE22_M_reserve_map_at_backEm
	.section	.text._ZNSt11_Deque_baseIiSaIiEE16_M_allocate_nodeEv,"axG",@progbits,_ZNSt11_Deque_baseIiSaIiEE16_M_allocate_nodeEv,comdat
	.align 2
	.weak	_ZNSt11_Deque_baseIiSaIiEE16_M_allocate_nodeEv
	.type	_ZNSt11_Deque_baseIiSaIiEE16_M_allocate_nodeEv, @function
_ZNSt11_Deque_baseIiSaIiEE16_M_allocate_nodeEv:
.LFB9606:
	.cfi_startproc
	pushq	%rbp
	.cfi_def_cfa_offset 16
	.cfi_offset 6, -16
	movq	%rsp, %rbp
	.cfi_def_cfa_register 6
	subq	$16, %rsp
	movq	%rdi, -8(%rbp)
	movl	$4, %edi
	call	_ZSt16__deque_buf_sizem
	movq	%rax, %rdx
	movq	-8(%rbp), %rax
	movq	%rdx, %rsi
	movq	%rax, %rdi
	call	_ZNSt16allocator_traitsISaIiEE8allocateERS0_m
	leave
	.cfi_def_cfa 7, 8
	ret
	.cfi_endproc
.LFE9606:
	.size	_ZNSt11_Deque_baseIiSaIiEE16_M_allocate_nodeEv, .-_ZNSt11_Deque_baseIiSaIiEE16_M_allocate_nodeEv
	.section	.text._ZNSt15_Deque_iteratorIiRiPiE11_M_set_nodeEPS1_,"axG",@progbits,_ZNSt15_Deque_iteratorIiRiPiE11_M_set_nodeEPS1_,comdat
	.align 2
	.weak	_ZNSt15_Deque_iteratorIiRiPiE11_M_set_nodeEPS1_
	.type	_ZNSt15_Deque_iteratorIiRiPiE11_M_set_nodeEPS1_, @function
_ZNSt15_Deque_iteratorIiRiPiE11_M_set_nodeEPS1_:
.LFB9607:
	.cfi_startproc
	pushq	%rbp
	.cfi_def_cfa_offset 16
	.cfi_offset 6, -16
	movq	%rsp, %rbp
	.cfi_def_cfa_register 6
	pushq	%rbx
	subq	$24, %rsp
	.cfi_offset 3, -24
	movq	%rdi, -24(%rbp)
	movq	%rsi, -32(%rbp)
	movq	-24(%rbp), %rax
	movq	-32(%rbp), %rdx
	movq	%rdx, 24(%rax)
	movq	-32(%rbp), %rax
	movq	(%rax), %rdx
	movq	-24(%rbp), %rax
	movq	%rdx, 8(%rax)
	movq	-24(%rbp), %rax
	movq	8(%rax), %rbx
	call	_ZNSt15_Deque_iteratorIiRiPiE14_S_buffer_sizeEv
	salq	$2, %rax
	leaq	(%rbx,%rax), %rdx
	movq	-24(%rbp), %rax
	movq	%rdx, 16(%rax)
	nop
	addq	$24, %rsp
	popq	%rbx
	popq	%rbp
	.cfi_def_cfa 7, 8
	ret
	.cfi_endproc
.LFE9607:
	.size	_ZNSt15_Deque_iteratorIiRiPiE11_M_set_nodeEPS1_, .-_ZNSt15_Deque_iteratorIiRiPiE11_M_set_nodeEPS1_
	.section	.text._ZN9__gnu_cxx13new_allocatorIiE7destroyIiEEvPT_,"axG",@progbits,_ZN9__gnu_cxx13new_allocatorIiE7destroyIiEEvPT_,comdat
	.align 2
	.weak	_ZN9__gnu_cxx13new_allocatorIiE7destroyIiEEvPT_
	.type	_ZN9__gnu_cxx13new_allocatorIiE7destroyIiEEvPT_, @function
_ZN9__gnu_cxx13new_allocatorIiE7destroyIiEEvPT_:
.LFB9608:
	.cfi_startproc
	pushq	%rbp
	.cfi_def_cfa_offset 16
	.cfi_offset 6, -16
	movq	%rsp, %rbp
	.cfi_def_cfa_register 6
	movq	%rdi, -8(%rbp)
	movq	%rsi, -16(%rbp)
	nop
	popq	%rbp
	.cfi_def_cfa 7, 8
	ret
	.cfi_endproc
.LFE9608:
	.size	_ZN9__gnu_cxx13new_allocatorIiE7destroyIiEEvPT_, .-_ZN9__gnu_cxx13new_allocatorIiE7destroyIiEEvPT_
	.section	.text._ZN9__gnu_cxx16__aligned_membufIiE7_M_addrEv,"axG",@progbits,_ZN9__gnu_cxx16__aligned_membufIiE7_M_addrEv,comdat
	.align 2
	.weak	_ZN9__gnu_cxx16__aligned_membufIiE7_M_addrEv
	.type	_ZN9__gnu_cxx16__aligned_membufIiE7_M_addrEv, @function
_ZN9__gnu_cxx16__aligned_membufIiE7_M_addrEv:
.LFB9609:
	.cfi_startproc
	pushq	%rbp
	.cfi_def_cfa_offset 16
	.cfi_offset 6, -16
	movq	%rsp, %rbp
	.cfi_def_cfa_register 6
	movq	%rdi, -8(%rbp)
	movq	-8(%rbp), %rax
	popq	%rbp
	.cfi_def_cfa 7, 8
	ret
	.cfi_endproc
.LFE9609:
	.size	_ZN9__gnu_cxx16__aligned_membufIiE7_M_addrEv, .-_ZN9__gnu_cxx16__aligned_membufIiE7_M_addrEv
	.section	.text._ZN9__gnu_cxx13new_allocatorISt10_List_nodeIiEE7destroyIiEEvPT_,"axG",@progbits,_ZN9__gnu_cxx13new_allocatorISt10_List_nodeIiEE7destroyIiEEvPT_,comdat
	.align 2
	.weak	_ZN9__gnu_cxx13new_allocatorISt10_List_nodeIiEE7destroyIiEEvPT_
	.type	_ZN9__gnu_cxx13new_allocatorISt10_List_nodeIiEE7destroyIiEEvPT_, @function
_ZN9__gnu_cxx13new_allocatorISt10_List_nodeIiEE7destroyIiEEvPT_:
.LFB9610:
	.cfi_startproc
	pushq	%rbp
	.cfi_def_cfa_offset 16
	.cfi_offset 6, -16
	movq	%rsp, %rbp
	.cfi_def_cfa_register 6
	movq	%rdi, -8(%rbp)
	movq	%rsi, -16(%rbp)
	nop
	popq	%rbp
	.cfi_def_cfa 7, 8
	ret
	.cfi_endproc
.LFE9610:
	.size	_ZN9__gnu_cxx13new_allocatorISt10_List_nodeIiEE7destroyIiEEvPT_, .-_ZN9__gnu_cxx13new_allocatorISt10_List_nodeIiEE7destroyIiEEvPT_
	.section	.text._ZNSt16allocator_traitsISaISt10_List_nodeIiEEE10deallocateERS2_PS1_m,"axG",@progbits,_ZNSt16allocator_traitsISaISt10_List_nodeIiEEE10deallocateERS2_PS1_m,comdat
	.weak	_ZNSt16allocator_traitsISaISt10_List_nodeIiEEE10deallocateERS2_PS1_m
	.type	_ZNSt16allocator_traitsISaISt10_List_nodeIiEEE10deallocateERS2_PS1_m, @function
_ZNSt16allocator_traitsISaISt10_List_nodeIiEEE10deallocateERS2_PS1_m:
.LFB9611:
	.cfi_startproc
	pushq	%rbp
	.cfi_def_cfa_offset 16
	.cfi_offset 6, -16
	movq	%rsp, %rbp
	.cfi_def_cfa_register 6
	subq	$32, %rsp
	movq	%rdi, -8(%rbp)
	movq	%rsi, -16(%rbp)
	movq	%rdx, -24(%rbp)
	movq	-24(%rbp), %rdx
	movq	-16(%rbp), %rcx
	movq	-8(%rbp), %rax
	movq	%rcx, %rsi
	movq	%rax, %rdi
	call	_ZN9__gnu_cxx13new_allocatorISt10_List_nodeIiEE10deallocateEPS2_m
	nop
	leave
	.cfi_def_cfa 7, 8
	ret
	.cfi_endproc
.LFE9611:
	.size	_ZNSt16allocator_traitsISaISt10_List_nodeIiEEE10deallocateERS2_PS1_m, .-_ZNSt16allocator_traitsISaISt10_List_nodeIiEEE10deallocateERS2_PS1_m
	.section	.text._ZN9__gnu_cxx13new_allocatorISt4pairIiiEE10deallocateEPS2_m,"axG",@progbits,_ZN9__gnu_cxx13new_allocatorISt4pairIiiEE10deallocateEPS2_m,comdat
	.align 2
	.weak	_ZN9__gnu_cxx13new_allocatorISt4pairIiiEE10deallocateEPS2_m
	.type	_ZN9__gnu_cxx13new_allocatorISt4pairIiiEE10deallocateEPS2_m, @function
_ZN9__gnu_cxx13new_allocatorISt4pairIiiEE10deallocateEPS2_m:
.LFB9612:
	.cfi_startproc
	pushq	%rbp
	.cfi_def_cfa_offset 16
	.cfi_offset 6, -16
	movq	%rsp, %rbp
	.cfi_def_cfa_register 6
	subq	$32, %rsp
	movq	%rdi, -8(%rbp)
	movq	%rsi, -16(%rbp)
	movq	%rdx, -24(%rbp)
	movq	-16(%rbp), %rax
	movq	%rax, %rdi
	call	_ZdlPv@PLT
	nop
	leave
	.cfi_def_cfa 7, 8
	ret
	.cfi_endproc
.LFE9612:
	.size	_ZN9__gnu_cxx13new_allocatorISt4pairIiiEE10deallocateEPS2_m, .-_ZN9__gnu_cxx13new_allocatorISt4pairIiiEE10deallocateEPS2_m
	.section	.text._ZNSt12_Destroy_auxILb1EE9__destroyIPSt4pairIiiEEEvT_S5_,"axG",@progbits,_ZNSt12_Destroy_auxILb1EE9__destroyIPSt4pairIiiEEEvT_S5_,comdat
	.weak	_ZNSt12_Destroy_auxILb1EE9__destroyIPSt4pairIiiEEEvT_S5_
	.type	_ZNSt12_Destroy_auxILb1EE9__destroyIPSt4pairIiiEEEvT_S5_, @function
_ZNSt12_Destroy_auxILb1EE9__destroyIPSt4pairIiiEEEvT_S5_:
.LFB9613:
	.cfi_startproc
	pushq	%rbp
	.cfi_def_cfa_offset 16
	.cfi_offset 6, -16
	movq	%rsp, %rbp
	.cfi_def_cfa_register 6
	movq	%rdi, -8(%rbp)
	movq	%rsi, -16(%rbp)
	nop
	popq	%rbp
	.cfi_def_cfa 7, 8
	ret
	.cfi_endproc
.LFE9613:
	.size	_ZNSt12_Destroy_auxILb1EE9__destroyIPSt4pairIiiEEEvT_S5_, .-_ZNSt12_Destroy_auxILb1EE9__destroyIPSt4pairIiiEEEvT_S5_
	.section	.text._ZN9__gnu_cxx13new_allocatorISt4pairIiiEE9constructIS2_JS2_EEEvPT_DpOT0_,"axG",@progbits,_ZN9__gnu_cxx13new_allocatorISt4pairIiiEE9constructIS2_JS2_EEEvPT_DpOT0_,comdat
	.align 2
	.weak	_ZN9__gnu_cxx13new_allocatorISt4pairIiiEE9constructIS2_JS2_EEEvPT_DpOT0_
	.type	_ZN9__gnu_cxx13new_allocatorISt4pairIiiEE9constructIS2_JS2_EEEvPT_DpOT0_, @function
_ZN9__gnu_cxx13new_allocatorISt4pairIiiEE9constructIS2_JS2_EEEvPT_DpOT0_:
.LFB9614:
	.cfi_startproc
	pushq	%rbp
	.cfi_def_cfa_offset 16
	.cfi_offset 6, -16
	movq	%rsp, %rbp
	.cfi_def_cfa_register 6
	pushq	%rbx
	subq	$40, %rsp
	.cfi_offset 3, -24
	movq	%rdi, -24(%rbp)
	movq	%rsi, -32(%rbp)
	movq	%rdx, -40(%rbp)
	movq	-40(%rbp), %rax
	movq	%rax, %rdi
	call	_ZSt7forwardISt4pairIiiEEOT_RNSt16remove_referenceIS2_E4typeE
	movq	%rax, %rbx
	movq	-32(%rbp), %rax
	movq	%rax, %rsi
	movl	$8, %edi
	call	_ZnwmPv
	movq	(%rbx), %rdx
	movq	%rdx, (%rax)
	nop
	addq	$40, %rsp
	popq	%rbx
	popq	%rbp
	.cfi_def_cfa 7, 8
	ret
	.cfi_endproc
.LFE9614:
	.size	_ZN9__gnu_cxx13new_allocatorISt4pairIiiEE9constructIS2_JS2_EEEvPT_DpOT0_, .-_ZN9__gnu_cxx13new_allocatorISt4pairIiiEE9constructIS2_JS2_EEEvPT_DpOT0_
	.section	.text._ZNKSt6vectorISt4pairIiiESaIS1_EE12_M_check_lenEmPKc,"axG",@progbits,_ZNKSt6vectorISt4pairIiiESaIS1_EE12_M_check_lenEmPKc,comdat
	.align 2
	.weak	_ZNKSt6vectorISt4pairIiiESaIS1_EE12_M_check_lenEmPKc
	.type	_ZNKSt6vectorISt4pairIiiESaIS1_EE12_M_check_lenEmPKc, @function
_ZNKSt6vectorISt4pairIiiESaIS1_EE12_M_check_lenEmPKc:
.LFB9615:
	.cfi_startproc
	pushq	%rbp
	.cfi_def_cfa_offset 16
	.cfi_offset 6, -16
	movq	%rsp, %rbp
	.cfi_def_cfa_register 6
	pushq	%rbx
	subq	$56, %rsp
	.cfi_offset 3, -24
	movq	%rdi, -40(%rbp)
	movq	%rsi, -48(%rbp)
	movq	%rdx, -56(%rbp)
	movq	-40(%rbp), %rax
	movq	%rax, %rdi
	call	_ZNKSt6vectorISt4pairIiiESaIS1_EE8max_sizeEv
	movq	%rax, %rbx
	movq	-40(%rbp), %rax
	movq	%rax, %rdi
	call	_ZNKSt6vectorISt4pairIiiESaIS1_EE4sizeEv
	subq	%rax, %rbx
	movq	%rbx, %rdx
	movq	-48(%rbp), %rax
	cmpq	%rax, %rdx
	setb	%al
	testb	%al, %al
	je	.L289
	movq	-56(%rbp), %rax
	movq	%rax, %rdi
	call	_ZSt20__throw_length_errorPKc@PLT
.L289:
	movq	-40(%rbp), %rax
	movq	%rax, %rdi
	call	_ZNKSt6vectorISt4pairIiiESaIS1_EE4sizeEv
	movq	%rax, %rbx
	movq	-40(%rbp), %rax
	movq	%rax, %rdi
	call	_ZNKSt6vectorISt4pairIiiESaIS1_EE4sizeEv
	movq	%rax, -32(%rbp)
	leaq	-48(%rbp), %rdx
	leaq	-32(%rbp), %rax
	movq	%rdx, %rsi
	movq	%rax, %rdi
	call	_ZSt3maxImERKT_S2_S2_
	movq	(%rax), %rax
	addq	%rbx, %rax
	movq	%rax, -24(%rbp)
	movq	-40(%rbp), %rax
	movq	%rax, %rdi
	call	_ZNKSt6vectorISt4pairIiiESaIS1_EE4sizeEv
	cmpq	%rax, -24(%rbp)
	jb	.L290
	movq	-40(%rbp), %rax
	movq	%rax, %rdi
	call	_ZNKSt6vectorISt4pairIiiESaIS1_EE8max_sizeEv
	cmpq	%rax, -24(%rbp)
	jbe	.L291
.L290:
	movq	-40(%rbp), %rax
	movq	%rax, %rdi
	call	_ZNKSt6vectorISt4pairIiiESaIS1_EE8max_sizeEv
	jmp	.L292
.L291:
	movq	-24(%rbp), %rax
.L292:
	addq	$56, %rsp
	popq	%rbx
	popq	%rbp
	.cfi_def_cfa 7, 8
	ret
	.cfi_endproc
.LFE9615:
	.size	_ZNKSt6vectorISt4pairIiiESaIS1_EE12_M_check_lenEmPKc, .-_ZNKSt6vectorISt4pairIiiESaIS1_EE12_M_check_lenEmPKc
	.section	.text._ZNSt12_Vector_baseISt4pairIiiESaIS1_EE11_M_allocateEm,"axG",@progbits,_ZNSt12_Vector_baseISt4pairIiiESaIS1_EE11_M_allocateEm,comdat
	.align 2
	.weak	_ZNSt12_Vector_baseISt4pairIiiESaIS1_EE11_M_allocateEm
	.type	_ZNSt12_Vector_baseISt4pairIiiESaIS1_EE11_M_allocateEm, @function
_ZNSt12_Vector_baseISt4pairIiiESaIS1_EE11_M_allocateEm:
.LFB9616:
	.cfi_startproc
	pushq	%rbp
	.cfi_def_cfa_offset 16
	.cfi_offset 6, -16
	movq	%rsp, %rbp
	.cfi_def_cfa_register 6
	subq	$16, %rsp
	movq	%rdi, -8(%rbp)
	movq	%rsi, -16(%rbp)
	cmpq	$0, -16(%rbp)
	je	.L295
	movq	-8(%rbp), %rax
	movq	-16(%rbp), %rdx
	movq	%rdx, %rsi
	movq	%rax, %rdi
	call	_ZNSt16allocator_traitsISaISt4pairIiiEEE8allocateERS2_m
	jmp	.L297
.L295:
	movl	$0, %eax
.L297:
	leave
	.cfi_def_cfa 7, 8
	ret
	.cfi_endproc
.LFE9616:
	.size	_ZNSt12_Vector_baseISt4pairIiiESaIS1_EE11_M_allocateEm, .-_ZNSt12_Vector_baseISt4pairIiiESaIS1_EE11_M_allocateEm
	.section	.text._ZNSt6vectorISt4pairIiiESaIS1_EE11_S_relocateEPS1_S4_S4_RS2_,"axG",@progbits,_ZNSt6vectorISt4pairIiiESaIS1_EE11_S_relocateEPS1_S4_S4_RS2_,comdat
	.weak	_ZNSt6vectorISt4pairIiiESaIS1_EE11_S_relocateEPS1_S4_S4_RS2_
	.type	_ZNSt6vectorISt4pairIiiESaIS1_EE11_S_relocateEPS1_S4_S4_RS2_, @function
_ZNSt6vectorISt4pairIiiESaIS1_EE11_S_relocateEPS1_S4_S4_RS2_:
.LFB9617:
	.cfi_startproc
	pushq	%rbp
	.cfi_def_cfa_offset 16
	.cfi_offset 6, -16
	movq	%rsp, %rbp
	.cfi_def_cfa_register 6
	subq	$48, %rsp
	movq	%rdi, -24(%rbp)
	movq	%rsi, -32(%rbp)
	movq	%rdx, -40(%rbp)
	movq	%rcx, -48(%rbp)
	movq	-48(%rbp), %rcx
	movq	-40(%rbp), %rdx
	movq	-32(%rbp), %rsi
	movq	-24(%rbp), %rax
	movq	%rax, %rdi
	call	_ZNSt6vectorISt4pairIiiESaIS1_EE14_S_do_relocateEPS1_S4_S4_RS2_St17integral_constantIbLb1EE
	leave
	.cfi_def_cfa 7, 8
	ret
	.cfi_endproc
.LFE9617:
	.size	_ZNSt6vectorISt4pairIiiESaIS1_EE11_S_relocateEPS1_S4_S4_RS2_, .-_ZNSt6vectorISt4pairIiiESaIS1_EE11_S_relocateEPS1_S4_S4_RS2_
	.section	.text._ZNK9__gnu_cxx17__normal_iteratorIPSt4pairIiiESt6vectorIS2_SaIS2_EEE4baseEv,"axG",@progbits,_ZNK9__gnu_cxx17__normal_iteratorIPSt4pairIiiESt6vectorIS2_SaIS2_EEE4baseEv,comdat
	.align 2
	.weak	_ZNK9__gnu_cxx17__normal_iteratorIPSt4pairIiiESt6vectorIS2_SaIS2_EEE4baseEv
	.type	_ZNK9__gnu_cxx17__normal_iteratorIPSt4pairIiiESt6vectorIS2_SaIS2_EEE4baseEv, @function
_ZNK9__gnu_cxx17__normal_iteratorIPSt4pairIiiESt6vectorIS2_SaIS2_EEE4baseEv:
.LFB9618:
	.cfi_startproc
	pushq	%rbp
	.cfi_def_cfa_offset 16
	.cfi_offset 6, -16
	movq	%rsp, %rbp
	.cfi_def_cfa_register 6
	movq	%rdi, -8(%rbp)
	movq	-8(%rbp), %rax
	popq	%rbp
	.cfi_def_cfa 7, 8
	ret
	.cfi_endproc
.LFE9618:
	.size	_ZNK9__gnu_cxx17__normal_iteratorIPSt4pairIiiESt6vectorIS2_SaIS2_EEE4baseEv, .-_ZNK9__gnu_cxx17__normal_iteratorIPSt4pairIiiESt6vectorIS2_SaIS2_EEE4baseEv
	.section	.text._ZSt34__uninitialized_move_if_noexcept_aIPSt4pairIiiES2_SaIS1_EET0_T_S5_S4_RT1_,"axG",@progbits,_ZSt34__uninitialized_move_if_noexcept_aIPSt4pairIiiES2_SaIS1_EET0_T_S5_S4_RT1_,comdat
	.weak	_ZSt34__uninitialized_move_if_noexcept_aIPSt4pairIiiES2_SaIS1_EET0_T_S5_S4_RT1_
	.type	_ZSt34__uninitialized_move_if_noexcept_aIPSt4pairIiiES2_SaIS1_EET0_T_S5_S4_RT1_, @function
_ZSt34__uninitialized_move_if_noexcept_aIPSt4pairIiiES2_SaIS1_EET0_T_S5_S4_RT1_:
.LFB9619:
	.cfi_startproc
	pushq	%rbp
	.cfi_def_cfa_offset 16
	.cfi_offset 6, -16
	movq	%rsp, %rbp
	.cfi_def_cfa_register 6
	pushq	%rbx
	subq	$40, %rsp
	.cfi_offset 3, -24
	movq	%rdi, -24(%rbp)
	movq	%rsi, -32(%rbp)
	movq	%rdx, -40(%rbp)
	movq	%rcx, -48(%rbp)
	movq	-32(%rbp), %rax
	movq	%rax, %rdi
	call	_ZSt32__make_move_if_noexcept_iteratorISt4pairIiiESt13move_iteratorIPS1_EET0_PT_
	movq	%rax, %rbx
	movq	-24(%rbp), %rax
	movq	%rax, %rdi
	call	_ZSt32__make_move_if_noexcept_iteratorISt4pairIiiESt13move_iteratorIPS1_EET0_PT_
	movq	%rax, %rdi
	movq	-48(%rbp), %rdx
	movq	-40(%rbp), %rax
	movq	%rdx, %rcx
	movq	%rax, %rdx
	movq	%rbx, %rsi
	call	_ZSt22__uninitialized_copy_aISt13move_iteratorIPSt4pairIiiEES3_S2_ET0_T_S6_S5_RSaIT1_E
	addq	$40, %rsp
	popq	%rbx
	popq	%rbp
	.cfi_def_cfa 7, 8
	ret
	.cfi_endproc
.LFE9619:
	.size	_ZSt34__uninitialized_move_if_noexcept_aIPSt4pairIiiES2_SaIS1_EET0_T_S5_S4_RT1_, .-_ZSt34__uninitialized_move_if_noexcept_aIPSt4pairIiiES2_SaIS1_EET0_T_S5_S4_RT1_
	.section	.text._ZNSt16allocator_traitsISaISt4pairIiiEEE7destroyIS1_EEvRS2_PT_,"axG",@progbits,_ZNSt16allocator_traitsISaISt4pairIiiEEE7destroyIS1_EEvRS2_PT_,comdat
	.weak	_ZNSt16allocator_traitsISaISt4pairIiiEEE7destroyIS1_EEvRS2_PT_
	.type	_ZNSt16allocator_traitsISaISt4pairIiiEEE7destroyIS1_EEvRS2_PT_, @function
_ZNSt16allocator_traitsISaISt4pairIiiEEE7destroyIS1_EEvRS2_PT_:
.LFB9620:
	.cfi_startproc
	pushq	%rbp
	.cfi_def_cfa_offset 16
	.cfi_offset 6, -16
	movq	%rsp, %rbp
	.cfi_def_cfa_register 6
	subq	$16, %rsp
	movq	%rdi, -8(%rbp)
	movq	%rsi, -16(%rbp)
	movq	-16(%rbp), %rdx
	movq	-8(%rbp), %rax
	movq	%rdx, %rsi
	movq	%rax, %rdi
	call	_ZN9__gnu_cxx13new_allocatorISt4pairIiiEE7destroyIS2_EEvPT_
	nop
	leave
	.cfi_def_cfa 7, 8
	ret
	.cfi_endproc
.LFE9620:
	.size	_ZNSt16allocator_traitsISaISt4pairIiiEEE7destroyIS1_EEvRS2_PT_, .-_ZNSt16allocator_traitsISaISt4pairIiiEEE7destroyIS1_EEvRS2_PT_
	.section	.text._ZSt14__partial_sortIN9__gnu_cxx17__normal_iteratorIPSt4pairIiiESt6vectorIS3_SaIS3_EEEENS0_5__ops15_Iter_less_iterEEvT_SB_SB_T0_,"axG",@progbits,_ZSt14__partial_sortIN9__gnu_cxx17__normal_iteratorIPSt4pairIiiESt6vectorIS3_SaIS3_EEEENS0_5__ops15_Iter_less_iterEEvT_SB_SB_T0_,comdat
	.weak	_ZSt14__partial_sortIN9__gnu_cxx17__normal_iteratorIPSt4pairIiiESt6vectorIS3_SaIS3_EEEENS0_5__ops15_Iter_less_iterEEvT_SB_SB_T0_
	.type	_ZSt14__partial_sortIN9__gnu_cxx17__normal_iteratorIPSt4pairIiiESt6vectorIS3_SaIS3_EEEENS0_5__ops15_Iter_less_iterEEvT_SB_SB_T0_, @function
_ZSt14__partial_sortIN9__gnu_cxx17__normal_iteratorIPSt4pairIiiESt6vectorIS3_SaIS3_EEEENS0_5__ops15_Iter_less_iterEEvT_SB_SB_T0_:
.LFB9621:
	.cfi_startproc
	pushq	%rbp
	.cfi_def_cfa_offset 16
	.cfi_offset 6, -16
	movq	%rsp, %rbp
	.cfi_def_cfa_register 6
	subq	$32, %rsp
	movq	%rdi, -8(%rbp)
	movq	%rsi, -16(%rbp)
	movq	%rdx, -24(%rbp)
	movq	-24(%rbp), %rdx
	movq	-16(%rbp), %rcx
	movq	-8(%rbp), %rax
	movq	%rcx, %rsi
	movq	%rax, %rdi
	call	_ZSt13__heap_selectIN9__gnu_cxx17__normal_iteratorIPSt4pairIiiESt6vectorIS3_SaIS3_EEEENS0_5__ops15_Iter_less_iterEEvT_SB_SB_T0_
	movq	-16(%rbp), %rcx
	movq	-8(%rbp), %rax
	leaq	16(%rbp), %rdx
	movq	%rcx, %rsi
	movq	%rax, %rdi
	call	_ZSt11__sort_heapIN9__gnu_cxx17__normal_iteratorIPSt4pairIiiESt6vectorIS3_SaIS3_EEEENS0_5__ops15_Iter_less_iterEEvT_SB_RT0_
	nop
	leave
	.cfi_def_cfa 7, 8
	ret
	.cfi_endproc
.LFE9621:
	.size	_ZSt14__partial_sortIN9__gnu_cxx17__normal_iteratorIPSt4pairIiiESt6vectorIS3_SaIS3_EEEENS0_5__ops15_Iter_less_iterEEvT_SB_SB_T0_, .-_ZSt14__partial_sortIN9__gnu_cxx17__normal_iteratorIPSt4pairIiiESt6vectorIS3_SaIS3_EEEENS0_5__ops15_Iter_less_iterEEvT_SB_SB_T0_
	.section	.text._ZSt27__unguarded_partition_pivotIN9__gnu_cxx17__normal_iteratorIPSt4pairIiiESt6vectorIS3_SaIS3_EEEENS0_5__ops15_Iter_less_iterEET_SB_SB_T0_,"axG",@progbits,_ZSt27__unguarded_partition_pivotIN9__gnu_cxx17__normal_iteratorIPSt4pairIiiESt6vectorIS3_SaIS3_EEEENS0_5__ops15_Iter_less_iterEET_SB_SB_T0_,comdat
	.weak	_ZSt27__unguarded_partition_pivotIN9__gnu_cxx17__normal_iteratorIPSt4pairIiiESt6vectorIS3_SaIS3_EEEENS0_5__ops15_Iter_less_iterEET_SB_SB_T0_
	.type	_ZSt27__unguarded_partition_pivotIN9__gnu_cxx17__normal_iteratorIPSt4pairIiiESt6vectorIS3_SaIS3_EEEENS0_5__ops15_Iter_less_iterEET_SB_SB_T0_, @function
_ZSt27__unguarded_partition_pivotIN9__gnu_cxx17__normal_iteratorIPSt4pairIiiESt6vectorIS3_SaIS3_EEEENS0_5__ops15_Iter_less_iterEET_SB_SB_T0_:
.LFB9622:
	.cfi_startproc
	pushq	%rbp
	.cfi_def_cfa_offset 16
	.cfi_offset 6, -16
	movq	%rsp, %rbp
	.cfi_def_cfa_register 6
	pushq	%rbx
	subq	$40, %rsp
	.cfi_offset 3, -24
	movq	%rdi, -40(%rbp)
	movq	%rsi, -48(%rbp)
	leaq	-40(%rbp), %rdx
	leaq	-48(%rbp), %rax
	movq	%rdx, %rsi
	movq	%rax, %rdi
	call	_ZN9__gnu_cxxmiIPSt4pairIiiESt6vectorIS2_SaIS2_EEEENS_17__normal_iteratorIT_T0_E15difference_typeERKSA_SD_
	movq	%rax, %rdx
	shrq	$63, %rdx
	addq	%rdx, %rax
	sarq	%rax
	movq	%rax, %rdx
	leaq	-40(%rbp), %rax
	movq	%rdx, %rsi
	movq	%rax, %rdi
	call	_ZNK9__gnu_cxx17__normal_iteratorIPSt4pairIiiESt6vectorIS2_SaIS2_EEEplEl
	movq	%rax, -24(%rbp)
	leaq	-48(%rbp), %rax
	movl	$1, %esi
	movq	%rax, %rdi
	call	_ZNK9__gnu_cxx17__normal_iteratorIPSt4pairIiiESt6vectorIS2_SaIS2_EEEmiEl
	movq	%rax, %rbx
	leaq	-40(%rbp), %rax
	movl	$1, %esi
	movq	%rax, %rdi
	call	_ZNK9__gnu_cxx17__normal_iteratorIPSt4pairIiiESt6vectorIS2_SaIS2_EEEplEl
	movq	%rax, %rsi
	movq	-24(%rbp), %rdx
	movq	-40(%rbp), %rax
	movq	%rbx, %rcx
	movq	%rax, %rdi
	call	_ZSt22__move_median_to_firstIN9__gnu_cxx17__normal_iteratorIPSt4pairIiiESt6vectorIS3_SaIS3_EEEENS0_5__ops15_Iter_less_iterEEvT_SB_SB_SB_T0_
	leaq	-40(%rbp), %rax
	movl	$1, %esi
	movq	%rax, %rdi
	call	_ZNK9__gnu_cxx17__normal_iteratorIPSt4pairIiiESt6vectorIS2_SaIS2_EEEplEl
	movq	%rax, %rcx
	movq	-40(%rbp), %rdx
	movq	-48(%rbp), %rax
	movq	%rax, %rsi
	movq	%rcx, %rdi
	call	_ZSt21__unguarded_partitionIN9__gnu_cxx17__normal_iteratorIPSt4pairIiiESt6vectorIS3_SaIS3_EEEENS0_5__ops15_Iter_less_iterEET_SB_SB_SB_T0_
	addq	$40, %rsp
	popq	%rbx
	popq	%rbp
	.cfi_def_cfa 7, 8
	ret
	.cfi_endproc
.LFE9622:
	.size	_ZSt27__unguarded_partition_pivotIN9__gnu_cxx17__normal_iteratorIPSt4pairIiiESt6vectorIS3_SaIS3_EEEENS0_5__ops15_Iter_less_iterEET_SB_SB_T0_, .-_ZSt27__unguarded_partition_pivotIN9__gnu_cxx17__normal_iteratorIPSt4pairIiiESt6vectorIS3_SaIS3_EEEENS0_5__ops15_Iter_less_iterEET_SB_SB_T0_
	.section	.text._ZNK9__gnu_cxx17__normal_iteratorIPSt4pairIiiESt6vectorIS2_SaIS2_EEEplEl,"axG",@progbits,_ZNK9__gnu_cxx17__normal_iteratorIPSt4pairIiiESt6vectorIS2_SaIS2_EEEplEl,comdat
	.align 2
	.weak	_ZNK9__gnu_cxx17__normal_iteratorIPSt4pairIiiESt6vectorIS2_SaIS2_EEEplEl
	.type	_ZNK9__gnu_cxx17__normal_iteratorIPSt4pairIiiESt6vectorIS2_SaIS2_EEEplEl, @function
_ZNK9__gnu_cxx17__normal_iteratorIPSt4pairIiiESt6vectorIS2_SaIS2_EEEplEl:
.LFB9623:
	.cfi_startproc
	pushq	%rbp
	.cfi_def_cfa_offset 16
	.cfi_offset 6, -16
	movq	%rsp, %rbp
	.cfi_def_cfa_register 6
	subq	$32, %rsp
	movq	%rdi, -24(%rbp)
	movq	%rsi, -32(%rbp)
	movq	-24(%rbp), %rax
	movq	(%rax), %rax
	movq	-32(%rbp), %rdx
	salq	$3, %rdx
	addq	%rdx, %rax
	movq	%rax, -8(%rbp)
	leaq	-8(%rbp), %rdx
	leaq	-16(%rbp), %rax
	movq	%rdx, %rsi
	movq	%rax, %rdi
	call	_ZN9__gnu_cxx17__normal_iteratorIPSt4pairIiiESt6vectorIS2_SaIS2_EEEC1ERKS3_
	movq	-16(%rbp), %rax
	leave
	.cfi_def_cfa 7, 8
	ret
	.cfi_endproc
.LFE9623:
	.size	_ZNK9__gnu_cxx17__normal_iteratorIPSt4pairIiiESt6vectorIS2_SaIS2_EEEplEl, .-_ZNK9__gnu_cxx17__normal_iteratorIPSt4pairIiiESt6vectorIS2_SaIS2_EEEplEl
	.section	.text._ZSt16__insertion_sortIN9__gnu_cxx17__normal_iteratorIPSt4pairIiiESt6vectorIS3_SaIS3_EEEENS0_5__ops15_Iter_less_iterEEvT_SB_T0_,"axG",@progbits,_ZSt16__insertion_sortIN9__gnu_cxx17__normal_iteratorIPSt4pairIiiESt6vectorIS3_SaIS3_EEEENS0_5__ops15_Iter_less_iterEEvT_SB_T0_,comdat
	.weak	_ZSt16__insertion_sortIN9__gnu_cxx17__normal_iteratorIPSt4pairIiiESt6vectorIS3_SaIS3_EEEENS0_5__ops15_Iter_less_iterEEvT_SB_T0_
	.type	_ZSt16__insertion_sortIN9__gnu_cxx17__normal_iteratorIPSt4pairIiiESt6vectorIS3_SaIS3_EEEENS0_5__ops15_Iter_less_iterEEvT_SB_T0_, @function
_ZSt16__insertion_sortIN9__gnu_cxx17__normal_iteratorIPSt4pairIiiESt6vectorIS3_SaIS3_EEEENS0_5__ops15_Iter_less_iterEEvT_SB_T0_:
.LFB9624:
	.cfi_startproc
	pushq	%rbp
	.cfi_def_cfa_offset 16
	.cfi_offset 6, -16
	movq	%rsp, %rbp
	.cfi_def_cfa_register 6
	pushq	%rbx
	subq	$56, %rsp
	.cfi_offset 3, -24
	movq	%rdi, -56(%rbp)
	movq	%rsi, -64(%rbp)
	leaq	-64(%rbp), %rdx
	leaq	-56(%rbp), %rax
	movq	%rdx, %rsi
	movq	%rax, %rdi
	call	_ZN9__gnu_cxxeqIPSt4pairIiiESt6vectorIS2_SaIS2_EEEEbRKNS_17__normal_iteratorIT_T0_EESC_
	testb	%al, %al
	jne	.L317
	leaq	-56(%rbp), %rax
	movl	$1, %esi
	movq	%rax, %rdi
	call	_ZNK9__gnu_cxx17__normal_iteratorIPSt4pairIiiESt6vectorIS2_SaIS2_EEEplEl
	movq	%rax, -32(%rbp)
.L316:
	leaq	-64(%rbp), %rdx
	leaq	-32(%rbp), %rax
	movq	%rdx, %rsi
	movq	%rax, %rdi
	call	_ZN9__gnu_cxxneIPSt4pairIiiESt6vectorIS2_SaIS2_EEEEbRKNS_17__normal_iteratorIT_T0_EESC_
	testb	%al, %al
	je	.L310
	movq	-56(%rbp), %rdx
	movq	-32(%rbp), %rax
	movq	%rax, %rsi
	leaq	16(%rbp), %rdi
	call	_ZNK9__gnu_cxx5__ops15_Iter_less_iterclINS_17__normal_iteratorIPSt4pairIiiESt6vectorIS5_SaIS5_EEEESA_EEbT_T0_
	testb	%al, %al
	je	.L314
	leaq	-32(%rbp), %rax
	movq	%rax, %rdi
	call	_ZNK9__gnu_cxx17__normal_iteratorIPSt4pairIiiESt6vectorIS2_SaIS2_EEEdeEv
	movq	%rax, %rdi
	call	_ZSt4moveIRSt4pairIiiEEONSt16remove_referenceIT_E4typeEOS4_
	movq	(%rax), %rax
	movq	%rax, -40(%rbp)
	leaq	-32(%rbp), %rax
	movl	$1, %esi
	movq	%rax, %rdi
	call	_ZNK9__gnu_cxx17__normal_iteratorIPSt4pairIiiESt6vectorIS2_SaIS2_EEEplEl
	movq	%rax, %rdx
	movq	-32(%rbp), %rcx
	movq	-56(%rbp), %rax
	movq	%rcx, %rsi
	movq	%rax, %rdi
	call	_ZSt13move_backwardIN9__gnu_cxx17__normal_iteratorIPSt4pairIiiESt6vectorIS3_SaIS3_EEEES8_ET0_T_SA_S9_
	leaq	-40(%rbp), %rax
	movq	%rax, %rdi
	call	_ZSt4moveIRSt4pairIiiEEONSt16remove_referenceIT_E4typeEOS4_
	movq	%rax, %rbx
	leaq	-56(%rbp), %rax
	movq	%rax, %rdi
	call	_ZNK9__gnu_cxx17__normal_iteratorIPSt4pairIiiESt6vectorIS2_SaIS2_EEEdeEv
	movq	%rbx, %rsi
	movq	%rax, %rdi
	call	_ZNSt4pairIiiEaSEOS0_
	jmp	.L315
.L314:
	call	_ZN9__gnu_cxx5__ops15__val_comp_iterENS0_15_Iter_less_iterE
	movq	-32(%rbp), %rax
	movq	%rax, %rdi
	call	_ZSt25__unguarded_linear_insertIN9__gnu_cxx17__normal_iteratorIPSt4pairIiiESt6vectorIS3_SaIS3_EEEENS0_5__ops14_Val_less_iterEEvT_T0_
.L315:
	leaq	-32(%rbp), %rax
	movq	%rax, %rdi
	call	_ZN9__gnu_cxx17__normal_iteratorIPSt4pairIiiESt6vectorIS2_SaIS2_EEEppEv
	jmp	.L316
.L317:
	nop
.L310:
	addq	$56, %rsp
	popq	%rbx
	popq	%rbp
	.cfi_def_cfa 7, 8
	ret
	.cfi_endproc
.LFE9624:
	.size	_ZSt16__insertion_sortIN9__gnu_cxx17__normal_iteratorIPSt4pairIiiESt6vectorIS3_SaIS3_EEEENS0_5__ops15_Iter_less_iterEEvT_SB_T0_, .-_ZSt16__insertion_sortIN9__gnu_cxx17__normal_iteratorIPSt4pairIiiESt6vectorIS3_SaIS3_EEEENS0_5__ops15_Iter_less_iterEEvT_SB_T0_
	.section	.text._ZSt26__unguarded_insertion_sortIN9__gnu_cxx17__normal_iteratorIPSt4pairIiiESt6vectorIS3_SaIS3_EEEENS0_5__ops15_Iter_less_iterEEvT_SB_T0_,"axG",@progbits,_ZSt26__unguarded_insertion_sortIN9__gnu_cxx17__normal_iteratorIPSt4pairIiiESt6vectorIS3_SaIS3_EEEENS0_5__ops15_Iter_less_iterEEvT_SB_T0_,comdat
	.weak	_ZSt26__unguarded_insertion_sortIN9__gnu_cxx17__normal_iteratorIPSt4pairIiiESt6vectorIS3_SaIS3_EEEENS0_5__ops15_Iter_less_iterEEvT_SB_T0_
	.type	_ZSt26__unguarded_insertion_sortIN9__gnu_cxx17__normal_iteratorIPSt4pairIiiESt6vectorIS3_SaIS3_EEEENS0_5__ops15_Iter_less_iterEEvT_SB_T0_, @function
_ZSt26__unguarded_insertion_sortIN9__gnu_cxx17__normal_iteratorIPSt4pairIiiESt6vectorIS3_SaIS3_EEEENS0_5__ops15_Iter_less_iterEEvT_SB_T0_:
.LFB9625:
	.cfi_startproc
	pushq	%rbp
	.cfi_def_cfa_offset 16
	.cfi_offset 6, -16
	movq	%rsp, %rbp
	.cfi_def_cfa_register 6
	subq	$32, %rsp
	movq	%rdi, -24(%rbp)
	movq	%rsi, -32(%rbp)
	movq	-24(%rbp), %rax
	movq	%rax, -16(%rbp)
.L320:
	leaq	-32(%rbp), %rdx
	leaq	-16(%rbp), %rax
	movq	%rdx, %rsi
	movq	%rax, %rdi
	call	_ZN9__gnu_cxxneIPSt4pairIiiESt6vectorIS2_SaIS2_EEEEbRKNS_17__normal_iteratorIT_T0_EESC_
	testb	%al, %al
	je	.L321
	call	_ZN9__gnu_cxx5__ops15__val_comp_iterENS0_15_Iter_less_iterE
	movq	-16(%rbp), %rax
	movq	%rax, %rdi
	call	_ZSt25__unguarded_linear_insertIN9__gnu_cxx17__normal_iteratorIPSt4pairIiiESt6vectorIS3_SaIS3_EEEENS0_5__ops14_Val_less_iterEEvT_T0_
	leaq	-16(%rbp), %rax
	movq	%rax, %rdi
	call	_ZN9__gnu_cxx17__normal_iteratorIPSt4pairIiiESt6vectorIS2_SaIS2_EEEppEv
	jmp	.L320
.L321:
	nop
	leave
	.cfi_def_cfa 7, 8
	ret
	.cfi_endproc
.LFE9625:
	.size	_ZSt26__unguarded_insertion_sortIN9__gnu_cxx17__normal_iteratorIPSt4pairIiiESt6vectorIS3_SaIS3_EEEENS0_5__ops15_Iter_less_iterEEvT_SB_T0_, .-_ZSt26__unguarded_insertion_sortIN9__gnu_cxx17__normal_iteratorIPSt4pairIiiESt6vectorIS3_SaIS3_EEEENS0_5__ops15_Iter_less_iterEEvT_SB_T0_
	.section	.text._ZNSt16allocator_traitsISaISt10_List_nodeIiEEE8allocateERS2_m,"axG",@progbits,_ZNSt16allocator_traitsISaISt10_List_nodeIiEEE8allocateERS2_m,comdat
	.weak	_ZNSt16allocator_traitsISaISt10_List_nodeIiEEE8allocateERS2_m
	.type	_ZNSt16allocator_traitsISaISt10_List_nodeIiEEE8allocateERS2_m, @function
_ZNSt16allocator_traitsISaISt10_List_nodeIiEEE8allocateERS2_m:
.LFB9688:
	.cfi_startproc
	pushq	%rbp
	.cfi_def_cfa_offset 16
	.cfi_offset 6, -16
	movq	%rsp, %rbp
	.cfi_def_cfa_register 6
	subq	$16, %rsp
	movq	%rdi, -8(%rbp)
	movq	%rsi, -16(%rbp)
	movq	-16(%rbp), %rcx
	movq	-8(%rbp), %rax
	movl	$0, %edx
	movq	%rcx, %rsi
	movq	%rax, %rdi
	call	_ZN9__gnu_cxx13new_allocatorISt10_List_nodeIiEE8allocateEmPKv
	leave
	.cfi_def_cfa 7, 8
	ret
	.cfi_endproc
.LFE9688:
	.size	_ZNSt16allocator_traitsISaISt10_List_nodeIiEEE8allocateERS2_m, .-_ZNSt16allocator_traitsISaISt10_List_nodeIiEEE8allocateERS2_m
	.section	.text._ZSt11__addressofISaISt10_List_nodeIiEEEPT_RS3_,"axG",@progbits,_ZSt11__addressofISaISt10_List_nodeIiEEEPT_RS3_,comdat
	.weak	_ZSt11__addressofISaISt10_List_nodeIiEEEPT_RS3_
	.type	_ZSt11__addressofISaISt10_List_nodeIiEEEPT_RS3_, @function
_ZSt11__addressofISaISt10_List_nodeIiEEEPT_RS3_:
.LFB9689:
	.cfi_startproc
	pushq	%rbp
	.cfi_def_cfa_offset 16
	.cfi_offset 6, -16
	movq	%rsp, %rbp
	.cfi_def_cfa_register 6
	movq	%rdi, -8(%rbp)
	movq	-8(%rbp), %rax
	popq	%rbp
	.cfi_def_cfa 7, 8
	ret
	.cfi_endproc
.LFE9689:
	.size	_ZSt11__addressofISaISt10_List_nodeIiEEEPT_RS3_, .-_ZSt11__addressofISaISt10_List_nodeIiEEEPT_RS3_
	.section	.text._ZN9__gnu_cxx13new_allocatorISt10_List_nodeIiEE9constructIiJRKiEEEvPT_DpOT0_,"axG",@progbits,_ZN9__gnu_cxx13new_allocatorISt10_List_nodeIiEE9constructIiJRKiEEEvPT_DpOT0_,comdat
	.align 2
	.weak	_ZN9__gnu_cxx13new_allocatorISt10_List_nodeIiEE9constructIiJRKiEEEvPT_DpOT0_
	.type	_ZN9__gnu_cxx13new_allocatorISt10_List_nodeIiEE9constructIiJRKiEEEvPT_DpOT0_, @function
_ZN9__gnu_cxx13new_allocatorISt10_List_nodeIiEE9constructIiJRKiEEEvPT_DpOT0_:
.LFB9690:
	.cfi_startproc
	pushq	%rbp
	.cfi_def_cfa_offset 16
	.cfi_offset 6, -16
	movq	%rsp, %rbp
	.cfi_def_cfa_register 6
	pushq	%rbx
	subq	$40, %rsp
	.cfi_offset 3, -24
	movq	%rdi, -24(%rbp)
	movq	%rsi, -32(%rbp)
	movq	%rdx, -40(%rbp)
	movq	-40(%rbp), %rax
	movq	%rax, %rdi
	call	_ZSt7forwardIRKiEOT_RNSt16remove_referenceIS2_E4typeE
	movl	(%rax), %ebx
	movq	-32(%rbp), %rax
	movq	%rax, %rsi
	movl	$4, %edi
	call	_ZnwmPv
	movl	%ebx, (%rax)
	nop
	addq	$40, %rsp
	popq	%rbx
	popq	%rbp
	.cfi_def_cfa 7, 8
	ret
	.cfi_endproc
.LFE9690:
	.size	_ZN9__gnu_cxx13new_allocatorISt10_List_nodeIiEE9constructIiJRKiEEEvPT_DpOT0_, .-_ZN9__gnu_cxx13new_allocatorISt10_List_nodeIiEE9constructIiJRKiEEEvPT_DpOT0_
	.section	.text._ZNSaIiEC2Ev,"axG",@progbits,_ZNSaIiEC5Ev,comdat
	.align 2
	.weak	_ZNSaIiEC2Ev
	.type	_ZNSaIiEC2Ev, @function
_ZNSaIiEC2Ev:
.LFB9692:
	.cfi_startproc
	pushq	%rbp
	.cfi_def_cfa_offset 16
	.cfi_offset 6, -16
	movq	%rsp, %rbp
	.cfi_def_cfa_register 6
	subq	$16, %rsp
	movq	%rdi, -8(%rbp)
	movq	-8(%rbp), %rax
	movq	%rax, %rdi
	call	_ZN9__gnu_cxx13new_allocatorIiEC2Ev
	nop
	leave
	.cfi_def_cfa 7, 8
	ret
	.cfi_endproc
.LFE9692:
	.size	_ZNSaIiEC2Ev, .-_ZNSaIiEC2Ev
	.weak	_ZNSaIiEC1Ev
	.set	_ZNSaIiEC1Ev,_ZNSaIiEC2Ev
	.section	.text._ZNSt15_Deque_iteratorIiRiPiEC2Ev,"axG",@progbits,_ZNSt15_Deque_iteratorIiRiPiEC5Ev,comdat
	.align 2
	.weak	_ZNSt15_Deque_iteratorIiRiPiEC2Ev
	.type	_ZNSt15_Deque_iteratorIiRiPiEC2Ev, @function
_ZNSt15_Deque_iteratorIiRiPiEC2Ev:
.LFB9695:
	.cfi_startproc
	pushq	%rbp
	.cfi_def_cfa_offset 16
	.cfi_offset 6, -16
	movq	%rsp, %rbp
	.cfi_def_cfa_register 6
	movq	%rdi, -8(%rbp)
	movq	-8(%rbp), %rax
	movq	$0, (%rax)
	movq	-8(%rbp), %rax
	movq	$0, 8(%rax)
	movq	-8(%rbp), %rax
	movq	$0, 16(%rax)
	movq	-8(%rbp), %rax
	movq	$0, 24(%rax)
	nop
	popq	%rbp
	.cfi_def_cfa 7, 8
	ret
	.cfi_endproc
.LFE9695:
	.size	_ZNSt15_Deque_iteratorIiRiPiEC2Ev, .-_ZNSt15_Deque_iteratorIiRiPiEC2Ev
	.weak	_ZNSt15_Deque_iteratorIiRiPiEC1Ev
	.set	_ZNSt15_Deque_iteratorIiRiPiEC1Ev,_ZNSt15_Deque_iteratorIiRiPiEC2Ev
	.section	.text._ZNSt11_Deque_baseIiSaIiEE15_M_allocate_mapEm,"axG",@progbits,_ZNSt11_Deque_baseIiSaIiEE15_M_allocate_mapEm,comdat
	.align 2
	.weak	_ZNSt11_Deque_baseIiSaIiEE15_M_allocate_mapEm
	.type	_ZNSt11_Deque_baseIiSaIiEE15_M_allocate_mapEm, @function
_ZNSt11_Deque_baseIiSaIiEE15_M_allocate_mapEm:
.LFB9697:
	.cfi_startproc
	.cfi_personality 0x9b,DW.ref.__gxx_personality_v0
	.cfi_lsda 0x1b,.LLSDA9697
	pushq	%rbp
	.cfi_def_cfa_offset 16
	.cfi_offset 6, -16
	movq	%rsp, %rbp
	.cfi_def_cfa_register 6
	pushq	%rbx
	subq	$40, %rsp
	.cfi_offset 3, -24
	movq	%rdi, -40(%rbp)
	movq	%rsi, -48(%rbp)
	leaq	-17(%rbp), %rax
	movq	-40(%rbp), %rdx
	movq	%rdx, %rsi
	movq	%rax, %rdi
	call	_ZNKSt11_Deque_baseIiSaIiEE20_M_get_map_allocatorEv
	movq	-48(%rbp), %rdx
	leaq	-17(%rbp), %rax
	movq	%rdx, %rsi
	movq	%rax, %rdi
.LEHB17:
	call	_ZNSt16allocator_traitsISaIPiEE8allocateERS1_m
.LEHE17:
	movq	%rax, %rbx
	nop
	leaq	-17(%rbp), %rax
	movq	%rax, %rdi
	call	_ZNSaIPiED1Ev
	movq	%rbx, %rax
	jmp	.L333
.L332:
	movq	%rax, %rbx
	leaq	-17(%rbp), %rax
	movq	%rax, %rdi
	call	_ZNSaIPiED1Ev
	movq	%rbx, %rax
	movq	%rax, %rdi
.LEHB18:
	call	_Unwind_Resume@PLT
.LEHE18:
.L333:
	addq	$40, %rsp
	popq	%rbx
	popq	%rbp
	.cfi_def_cfa 7, 8
	ret
	.cfi_endproc
.LFE9697:
	.section	.gcc_except_table
.LLSDA9697:
	.byte	0xff
	.byte	0xff
	.byte	0x1
	.uleb128 .LLSDACSE9697-.LLSDACSB9697
.LLSDACSB9697:
	.uleb128 .LEHB17-.LFB9697
	.uleb128 .LEHE17-.LEHB17
	.uleb128 .L332-.LFB9697
	.uleb128 0
	.uleb128 .LEHB18-.LFB9697
	.uleb128 .LEHE18-.LEHB18
	.uleb128 0
	.uleb128 0
.LLSDACSE9697:
	.section	.text._ZNSt11_Deque_baseIiSaIiEE15_M_allocate_mapEm,"axG",@progbits,_ZNSt11_Deque_baseIiSaIiEE15_M_allocate_mapEm,comdat
	.size	_ZNSt11_Deque_baseIiSaIiEE15_M_allocate_mapEm, .-_ZNSt11_Deque_baseIiSaIiEE15_M_allocate_mapEm
	.section	.text._ZNSt11_Deque_baseIiSaIiEE15_M_create_nodesEPPiS3_,"axG",@progbits,_ZNSt11_Deque_baseIiSaIiEE15_M_create_nodesEPPiS3_,comdat
	.align 2
	.weak	_ZNSt11_Deque_baseIiSaIiEE15_M_create_nodesEPPiS3_
	.type	_ZNSt11_Deque_baseIiSaIiEE15_M_create_nodesEPPiS3_, @function
_ZNSt11_Deque_baseIiSaIiEE15_M_create_nodesEPPiS3_:
.LFB9698:
	.cfi_startproc
	.cfi_personality 0x9b,DW.ref.__gxx_personality_v0
	.cfi_lsda 0x1b,.LLSDA9698
	pushq	%rbp
	.cfi_def_cfa_offset 16
	.cfi_offset 6, -16
	movq	%rsp, %rbp
	.cfi_def_cfa_register 6
	pushq	%rbx
	subq	$56, %rsp
	.cfi_offset 3, -24
	movq	%rdi, -40(%rbp)
	movq	%rsi, -48(%rbp)
	movq	%rdx, -56(%rbp)
	movq	-48(%rbp), %rax
	movq	%rax, -24(%rbp)
.L336:
	movq	-24(%rbp), %rax
	cmpq	-56(%rbp), %rax
	jnb	.L341
	movq	-40(%rbp), %rax
	movq	%rax, %rdi
.LEHB19:
	call	_ZNSt11_Deque_baseIiSaIiEE16_M_allocate_nodeEv
.LEHE19:
	movq	-24(%rbp), %rdx
	movq	%rax, (%rdx)
	addq	$8, -24(%rbp)
	jmp	.L336
.L339:
	movq	%rax, %rdi
	call	__cxa_begin_catch@PLT
	movq	-24(%rbp), %rdx
	movq	-48(%rbp), %rcx
	movq	-40(%rbp), %rax
	movq	%rcx, %rsi
	movq	%rax, %rdi
	call	_ZNSt11_Deque_baseIiSaIiEE16_M_destroy_nodesEPPiS3_
.LEHB20:
	call	__cxa_rethrow@PLT
.LEHE20:
.L340:
	movq	%rax, %rbx
	call	__cxa_end_catch@PLT
	movq	%rbx, %rax
	movq	%rax, %rdi
.LEHB21:
	call	_Unwind_Resume@PLT
.LEHE21:
.L341:
	nop
	addq	$56, %rsp
	popq	%rbx
	popq	%rbp
	.cfi_def_cfa 7, 8
	ret
	.cfi_endproc
.LFE9698:
	.section	.gcc_except_table
	.align 4
.LLSDA9698:
	.byte	0xff
	.byte	0x9b
	.uleb128 .LLSDATT9698-.LLSDATTD9698
.LLSDATTD9698:
	.byte	0x1
	.uleb128 .LLSDACSE9698-.LLSDACSB9698
.LLSDACSB9698:
	.uleb128 .LEHB19-.LFB9698
	.uleb128 .LEHE19-.LEHB19
	.uleb128 .L339-.LFB9698
	.uleb128 0x1
	.uleb128 .LEHB20-.LFB9698
	.uleb128 .LEHE20-.LEHB20
	.uleb128 .L340-.LFB9698
	.uleb128 0
	.uleb128 .LEHB21-.LFB9698
	.uleb128 .LEHE21-.LEHB21
	.uleb128 0
	.uleb128 0
.LLSDACSE9698:
	.byte	0x1
	.byte	0
	.align 4
	.long	0

.LLSDATT9698:
	.section	.text._ZNSt11_Deque_baseIiSaIiEE15_M_create_nodesEPPiS3_,"axG",@progbits,_ZNSt11_Deque_baseIiSaIiEE15_M_create_nodesEPPiS3_,comdat
	.size	_ZNSt11_Deque_baseIiSaIiEE15_M_create_nodesEPPiS3_, .-_ZNSt11_Deque_baseIiSaIiEE15_M_create_nodesEPPiS3_
	.section	.text._ZNSt16allocator_traitsISaIiEE10deallocateERS0_Pim,"axG",@progbits,_ZNSt16allocator_traitsISaIiEE10deallocateERS0_Pim,comdat
	.weak	_ZNSt16allocator_traitsISaIiEE10deallocateERS0_Pim
	.type	_ZNSt16allocator_traitsISaIiEE10deallocateERS0_Pim, @function
_ZNSt16allocator_traitsISaIiEE10deallocateERS0_Pim:
.LFB9699:
	.cfi_startproc
	pushq	%rbp
	.cfi_def_cfa_offset 16
	.cfi_offset 6, -16
	movq	%rsp, %rbp
	.cfi_def_cfa_register 6
	subq	$32, %rsp
	movq	%rdi, -8(%rbp)
	movq	%rsi, -16(%rbp)
	movq	%rdx, -24(%rbp)
	movq	-24(%rbp), %rdx
	movq	-16(%rbp), %rcx
	movq	-8(%rbp), %rax
	movq	%rcx, %rsi
	movq	%rax, %rdi
	call	_ZN9__gnu_cxx13new_allocatorIiE10deallocateEPim
	nop
	leave
	.cfi_def_cfa 7, 8
	ret
	.cfi_endproc
.LFE9699:
	.size	_ZNSt16allocator_traitsISaIiEE10deallocateERS0_Pim, .-_ZNSt16allocator_traitsISaIiEE10deallocateERS0_Pim
	.section	.text._ZNKSt11_Deque_baseIiSaIiEE19_M_get_Tp_allocatorEv,"axG",@progbits,_ZNKSt11_Deque_baseIiSaIiEE19_M_get_Tp_allocatorEv,comdat
	.align 2
	.weak	_ZNKSt11_Deque_baseIiSaIiEE19_M_get_Tp_allocatorEv
	.type	_ZNKSt11_Deque_baseIiSaIiEE19_M_get_Tp_allocatorEv, @function
_ZNKSt11_Deque_baseIiSaIiEE19_M_get_Tp_allocatorEv:
.LFB9700:
	.cfi_startproc
	pushq	%rbp
	.cfi_def_cfa_offset 16
	.cfi_offset 6, -16
	movq	%rsp, %rbp
	.cfi_def_cfa_register 6
	movq	%rdi, -8(%rbp)
	movq	-8(%rbp), %rax
	popq	%rbp
	.cfi_def_cfa 7, 8
	ret
	.cfi_endproc
.LFE9700:
	.size	_ZNKSt11_Deque_baseIiSaIiEE19_M_get_Tp_allocatorEv, .-_ZNKSt11_Deque_baseIiSaIiEE19_M_get_Tp_allocatorEv
	.section	.text._ZNSaIPiEC2IiEERKSaIT_E,"axG",@progbits,_ZNSaIPiEC5IiEERKSaIT_E,comdat
	.align 2
	.weak	_ZNSaIPiEC2IiEERKSaIT_E
	.type	_ZNSaIPiEC2IiEERKSaIT_E, @function
_ZNSaIPiEC2IiEERKSaIT_E:
.LFB9702:
	.cfi_startproc
	pushq	%rbp
	.cfi_def_cfa_offset 16
	.cfi_offset 6, -16
	movq	%rsp, %rbp
	.cfi_def_cfa_register 6
	subq	$16, %rsp
	movq	%rdi, -8(%rbp)
	movq	%rsi, -16(%rbp)
	movq	-8(%rbp), %rax
	movq	%rax, %rdi
	call	_ZN9__gnu_cxx13new_allocatorIPiEC2Ev
	nop
	leave
	.cfi_def_cfa 7, 8
	ret
	.cfi_endproc
.LFE9702:
	.size	_ZNSaIPiEC2IiEERKSaIT_E, .-_ZNSaIPiEC2IiEERKSaIT_E
	.weak	_ZNSaIPiEC1IiEERKSaIT_E
	.set	_ZNSaIPiEC1IiEERKSaIT_E,_ZNSaIPiEC2IiEERKSaIT_E
	.section	.text._ZN9__gnu_cxx13new_allocatorIPiED2Ev,"axG",@progbits,_ZN9__gnu_cxx13new_allocatorIPiED5Ev,comdat
	.align 2
	.weak	_ZN9__gnu_cxx13new_allocatorIPiED2Ev
	.type	_ZN9__gnu_cxx13new_allocatorIPiED2Ev, @function
_ZN9__gnu_cxx13new_allocatorIPiED2Ev:
.LFB9705:
	.cfi_startproc
	pushq	%rbp
	.cfi_def_cfa_offset 16
	.cfi_offset 6, -16
	movq	%rsp, %rbp
	.cfi_def_cfa_register 6
	movq	%rdi, -8(%rbp)
	nop
	popq	%rbp
	.cfi_def_cfa 7, 8
	ret
	.cfi_endproc
.LFE9705:
	.size	_ZN9__gnu_cxx13new_allocatorIPiED2Ev, .-_ZN9__gnu_cxx13new_allocatorIPiED2Ev
	.weak	_ZN9__gnu_cxx13new_allocatorIPiED1Ev
	.set	_ZN9__gnu_cxx13new_allocatorIPiED1Ev,_ZN9__gnu_cxx13new_allocatorIPiED2Ev
	.section	.text._ZN9__gnu_cxx13new_allocatorIPiE10deallocateEPS1_m,"axG",@progbits,_ZN9__gnu_cxx13new_allocatorIPiE10deallocateEPS1_m,comdat
	.align 2
	.weak	_ZN9__gnu_cxx13new_allocatorIPiE10deallocateEPS1_m
	.type	_ZN9__gnu_cxx13new_allocatorIPiE10deallocateEPS1_m, @function
_ZN9__gnu_cxx13new_allocatorIPiE10deallocateEPS1_m:
.LFB9710:
	.cfi_startproc
	pushq	%rbp
	.cfi_def_cfa_offset 16
	.cfi_offset 6, -16
	movq	%rsp, %rbp
	.cfi_def_cfa_register 6
	subq	$32, %rsp
	movq	%rdi, -8(%rbp)
	movq	%rsi, -16(%rbp)
	movq	%rdx, -24(%rbp)
	movq	-16(%rbp), %rax
	movq	%rax, %rdi
	call	_ZdlPv@PLT
	nop
	leave
	.cfi_def_cfa 7, 8
	ret
	.cfi_endproc
.LFE9710:
	.size	_ZN9__gnu_cxx13new_allocatorIPiE10deallocateEPS1_m, .-_ZN9__gnu_cxx13new_allocatorIPiE10deallocateEPS1_m
	.section	.text._ZStmiIiRiPiENSt15_Deque_iteratorIT_T0_T1_E15difference_typeERKS6_S9_,"axG",@progbits,_ZStmiIiRiPiENSt15_Deque_iteratorIT_T0_T1_E15difference_typeERKS6_S9_,comdat
	.weak	_ZStmiIiRiPiENSt15_Deque_iteratorIT_T0_T1_E15difference_typeERKS6_S9_
	.type	_ZStmiIiRiPiENSt15_Deque_iteratorIT_T0_T1_E15difference_typeERKS6_S9_, @function
_ZStmiIiRiPiENSt15_Deque_iteratorIT_T0_T1_E15difference_typeERKS6_S9_:
.LFB9712:
	.cfi_startproc
	pushq	%rbp
	.cfi_def_cfa_offset 16
	.cfi_offset 6, -16
	movq	%rsp, %rbp
	.cfi_def_cfa_register 6
	subq	$16, %rsp
	movq	%rdi, -8(%rbp)
	movq	%rsi, -16(%rbp)
	call	_ZNSt15_Deque_iteratorIiRiPiE14_S_buffer_sizeEv
	movq	%rax, %rcx
	movq	-8(%rbp), %rax
	movq	24(%rax), %rdx
	movq	-16(%rbp), %rax
	movq	24(%rax), %rax
	subq	%rax, %rdx
	movq	%rdx, %rax
	sarq	$3, %rax
	subq	$1, %rax
	imulq	%rax, %rcx
	movq	%rcx, %rdx
	movq	-8(%rbp), %rax
	movq	(%rax), %rcx
	movq	-8(%rbp), %rax
	movq	8(%rax), %rax
	subq	%rax, %rcx
	movq	%rcx, %rax
	sarq	$2, %rax
	leaq	(%rdx,%rax), %rcx
	movq	-16(%rbp), %rax
	movq	16(%rax), %rdx
	movq	-16(%rbp), %rax
	movq	(%rax), %rax
	subq	%rax, %rdx
	movq	%rdx, %rax
	sarq	$2, %rax
	addq	%rcx, %rax
	leave
	.cfi_def_cfa 7, 8
	ret
	.cfi_endproc
.LFE9712:
	.size	_ZStmiIiRiPiENSt15_Deque_iteratorIT_T0_T1_E15difference_typeERKS6_S9_, .-_ZStmiIiRiPiENSt15_Deque_iteratorIT_T0_T1_E15difference_typeERKS6_S9_
	.section	.text._ZNSt5dequeIiSaIiEE11_S_max_sizeERKS0_,"axG",@progbits,_ZNSt5dequeIiSaIiEE11_S_max_sizeERKS0_,comdat
	.weak	_ZNSt5dequeIiSaIiEE11_S_max_sizeERKS0_
	.type	_ZNSt5dequeIiSaIiEE11_S_max_sizeERKS0_, @function
_ZNSt5dequeIiSaIiEE11_S_max_sizeERKS0_:
.LFB9713:
	.cfi_startproc
	pushq	%rbp
	.cfi_def_cfa_offset 16
	.cfi_offset 6, -16
	movq	%rsp, %rbp
	.cfi_def_cfa_register 6
	subq	$32, %rsp
	movq	%rdi, -24(%rbp)
	movabsq	$9223372036854775807, %rax
	movq	%rax, -8(%rbp)
	movq	-24(%rbp), %rax
	movq	%rax, %rdi
	call	_ZNSt16allocator_traitsISaIiEE8max_sizeERKS0_
	movq	%rax, -16(%rbp)
	leaq	-16(%rbp), %rdx
	leaq	-8(%rbp), %rax
	movq	%rdx, %rsi
	movq	%rax, %rdi
	call	_ZSt3minImERKT_S2_S2_
	movq	(%rax), %rax
	leave
	.cfi_def_cfa 7, 8
	ret
	.cfi_endproc
.LFE9713:
	.size	_ZNSt5dequeIiSaIiEE11_S_max_sizeERKS0_, .-_ZNSt5dequeIiSaIiEE11_S_max_sizeERKS0_
	.section	.text._ZNSt5dequeIiSaIiEE17_M_reallocate_mapEmb,"axG",@progbits,_ZNSt5dequeIiSaIiEE17_M_reallocate_mapEmb,comdat
	.align 2
	.weak	_ZNSt5dequeIiSaIiEE17_M_reallocate_mapEmb
	.type	_ZNSt5dequeIiSaIiEE17_M_reallocate_mapEmb, @function
_ZNSt5dequeIiSaIiEE17_M_reallocate_mapEmb:
.LFB9714:
	.cfi_startproc
	pushq	%rbp
	.cfi_def_cfa_offset 16
	.cfi_offset 6, -16
	movq	%rsp, %rbp
	.cfi_def_cfa_register 6
	pushq	%rbx
	subq	$88, %rsp
	.cfi_offset 3, -24
	movq	%rdi, -72(%rbp)
	movq	%rsi, -80(%rbp)
	movl	%edx, %eax
	movb	%al, -84(%rbp)
	movq	-72(%rbp), %rax
	movq	72(%rax), %rdx
	movq	-72(%rbp), %rax
	movq	40(%rax), %rax
	subq	%rax, %rdx
	movq	%rdx, %rax
	sarq	$3, %rax
	addq	$1, %rax
	movq	%rax, -32(%rbp)
	movq	-80(%rbp), %rdx
	movq	-32(%rbp), %rax
	addq	%rdx, %rax
	movq	%rax, -40(%rbp)
	movq	-72(%rbp), %rax
	movq	8(%rax), %rax
	movq	-40(%rbp), %rdx
	addq	%rdx, %rdx
	cmpq	%rdx, %rax
	jbe	.L353
	movq	-72(%rbp), %rax
	movq	(%rax), %rdx
	movq	-72(%rbp), %rax
	movq	8(%rax), %rax
	subq	-40(%rbp), %rax
	shrq	%rax
	leaq	0(,%rax,8), %rcx
	cmpb	$0, -84(%rbp)
	je	.L354
	movq	-80(%rbp), %rax
	salq	$3, %rax
	jmp	.L355
.L354:
	movl	$0, %eax
.L355:
	addq	%rcx, %rax
	addq	%rdx, %rax
	movq	%rax, -24(%rbp)
	movq	-72(%rbp), %rax
	movq	40(%rax), %rax
	cmpq	%rax, -24(%rbp)
	jnb	.L356
	movq	-72(%rbp), %rax
	movq	72(%rax), %rax
	leaq	8(%rax), %rcx
	movq	-72(%rbp), %rax
	movq	40(%rax), %rax
	movq	-24(%rbp), %rdx
	movq	%rcx, %rsi
	movq	%rax, %rdi
	call	_ZSt4copyIPPiS1_ET0_T_S3_S2_
	jmp	.L357
.L356:
	movq	-32(%rbp), %rax
	leaq	0(,%rax,8), %rdx
	movq	-24(%rbp), %rax
	addq	%rax, %rdx
	movq	-72(%rbp), %rax
	movq	72(%rax), %rax
	leaq	8(%rax), %rcx
	movq	-72(%rbp), %rax
	movq	40(%rax), %rax
	movq	%rcx, %rsi
	movq	%rax, %rdi
	call	_ZSt13copy_backwardIPPiS1_ET0_T_S3_S2_
	jmp	.L357
.L353:
	movq	-72(%rbp), %rax
	movq	8(%rax), %rbx
	movq	-72(%rbp), %rax
	leaq	8(%rax), %rdx
	leaq	-80(%rbp), %rax
	movq	%rax, %rsi
	movq	%rdx, %rdi
	call	_ZSt3maxImERKT_S2_S2_
	movq	(%rax), %rax
	addq	%rbx, %rax
	addq	$2, %rax
	movq	%rax, -48(%rbp)
	movq	-72(%rbp), %rax
	movq	-48(%rbp), %rdx
	movq	%rdx, %rsi
	movq	%rax, %rdi
	call	_ZNSt11_Deque_baseIiSaIiEE15_M_allocate_mapEm
	movq	%rax, -56(%rbp)
	movq	-48(%rbp), %rax
	subq	-40(%rbp), %rax
	shrq	%rax
	leaq	0(,%rax,8), %rdx
	cmpb	$0, -84(%rbp)
	je	.L358
	movq	-80(%rbp), %rax
	salq	$3, %rax
	jmp	.L359
.L358:
	movl	$0, %eax
.L359:
	addq	%rax, %rdx
	movq	-56(%rbp), %rax
	addq	%rdx, %rax
	movq	%rax, -24(%rbp)
	movq	-72(%rbp), %rax
	movq	72(%rax), %rax
	leaq	8(%rax), %rcx
	movq	-72(%rbp), %rax
	movq	40(%rax), %rax
	movq	-24(%rbp), %rdx
	movq	%rcx, %rsi
	movq	%rax, %rdi
	call	_ZSt4copyIPPiS1_ET0_T_S3_S2_
	movq	-72(%rbp), %rax
	movq	-72(%rbp), %rdx
	movq	8(%rdx), %rdx
	movq	-72(%rbp), %rcx
	movq	(%rcx), %rcx
	movq	%rcx, %rsi
	movq	%rax, %rdi
	call	_ZNSt11_Deque_baseIiSaIiEE17_M_deallocate_mapEPPim
	movq	-72(%rbp), %rax
	movq	-56(%rbp), %rdx
	movq	%rdx, (%rax)
	movq	-72(%rbp), %rax
	movq	-48(%rbp), %rdx
	movq	%rdx, 8(%rax)
.L357:
	movq	-72(%rbp), %rax
	leaq	16(%rax), %rdx
	movq	-24(%rbp), %rax
	movq	%rax, %rsi
	movq	%rdx, %rdi
	call	_ZNSt15_Deque_iteratorIiRiPiE11_M_set_nodeEPS1_
	movq	-72(%rbp), %rax
	addq	$48, %rax
	movq	-32(%rbp), %rdx
	salq	$3, %rdx
	leaq	-8(%rdx), %rcx
	movq	-24(%rbp), %rdx
	addq	%rcx, %rdx
	movq	%rdx, %rsi
	movq	%rax, %rdi
	call	_ZNSt15_Deque_iteratorIiRiPiE11_M_set_nodeEPS1_
	nop
	addq	$88, %rsp
	popq	%rbx
	popq	%rbp
	.cfi_def_cfa 7, 8
	ret
	.cfi_endproc
.LFE9714:
	.size	_ZNSt5dequeIiSaIiEE17_M_reallocate_mapEmb, .-_ZNSt5dequeIiSaIiEE17_M_reallocate_mapEmb
	.section	.text._ZNSt16allocator_traitsISaIiEE8allocateERS0_m,"axG",@progbits,_ZNSt16allocator_traitsISaIiEE8allocateERS0_m,comdat
	.weak	_ZNSt16allocator_traitsISaIiEE8allocateERS0_m
	.type	_ZNSt16allocator_traitsISaIiEE8allocateERS0_m, @function
_ZNSt16allocator_traitsISaIiEE8allocateERS0_m:
.LFB9715:
	.cfi_startproc
	pushq	%rbp
	.cfi_def_cfa_offset 16
	.cfi_offset 6, -16
	movq	%rsp, %rbp
	.cfi_def_cfa_register 6
	subq	$16, %rsp
	movq	%rdi, -8(%rbp)
	movq	%rsi, -16(%rbp)
	movq	-16(%rbp), %rcx
	movq	-8(%rbp), %rax
	movl	$0, %edx
	movq	%rcx, %rsi
	movq	%rax, %rdi
	call	_ZN9__gnu_cxx13new_allocatorIiE8allocateEmPKv
	leave
	.cfi_def_cfa 7, 8
	ret
	.cfi_endproc
.LFE9715:
	.size	_ZNSt16allocator_traitsISaIiEE8allocateERS0_m, .-_ZNSt16allocator_traitsISaIiEE8allocateERS0_m
	.section	.text._ZNSt15_Deque_iteratorIiRiPiE14_S_buffer_sizeEv,"axG",@progbits,_ZNSt15_Deque_iteratorIiRiPiE14_S_buffer_sizeEv,comdat
	.weak	_ZNSt15_Deque_iteratorIiRiPiE14_S_buffer_sizeEv
	.type	_ZNSt15_Deque_iteratorIiRiPiE14_S_buffer_sizeEv, @function
_ZNSt15_Deque_iteratorIiRiPiE14_S_buffer_sizeEv:
.LFB9716:
	.cfi_startproc
	pushq	%rbp
	.cfi_def_cfa_offset 16
	.cfi_offset 6, -16
	movq	%rsp, %rbp
	.cfi_def_cfa_register 6
	movl	$4, %edi
	call	_ZSt16__deque_buf_sizem
	popq	%rbp
	.cfi_def_cfa 7, 8
	ret
	.cfi_endproc
.LFE9716:
	.size	_ZNSt15_Deque_iteratorIiRiPiE14_S_buffer_sizeEv, .-_ZNSt15_Deque_iteratorIiRiPiE14_S_buffer_sizeEv
	.section	.text._ZN9__gnu_cxx13new_allocatorISt10_List_nodeIiEE10deallocateEPS2_m,"axG",@progbits,_ZN9__gnu_cxx13new_allocatorISt10_List_nodeIiEE10deallocateEPS2_m,comdat
	.align 2
	.weak	_ZN9__gnu_cxx13new_allocatorISt10_List_nodeIiEE10deallocateEPS2_m
	.type	_ZN9__gnu_cxx13new_allocatorISt10_List_nodeIiEE10deallocateEPS2_m, @function
_ZN9__gnu_cxx13new_allocatorISt10_List_nodeIiEE10deallocateEPS2_m:
.LFB9717:
	.cfi_startproc
	pushq	%rbp
	.cfi_def_cfa_offset 16
	.cfi_offset 6, -16
	movq	%rsp, %rbp
	.cfi_def_cfa_register 6
	subq	$32, %rsp
	movq	%rdi, -8(%rbp)
	movq	%rsi, -16(%rbp)
	movq	%rdx, -24(%rbp)
	movq	-16(%rbp), %rax
	movq	%rax, %rdi
	call	_ZdlPv@PLT
	nop
	leave
	.cfi_def_cfa 7, 8
	ret
	.cfi_endproc
.LFE9717:
	.size	_ZN9__gnu_cxx13new_allocatorISt10_List_nodeIiEE10deallocateEPS2_m, .-_ZN9__gnu_cxx13new_allocatorISt10_List_nodeIiEE10deallocateEPS2_m
	.section	.text._ZNKSt6vectorISt4pairIiiESaIS1_EE8max_sizeEv,"axG",@progbits,_ZNKSt6vectorISt4pairIiiESaIS1_EE8max_sizeEv,comdat
	.align 2
	.weak	_ZNKSt6vectorISt4pairIiiESaIS1_EE8max_sizeEv
	.type	_ZNKSt6vectorISt4pairIiiESaIS1_EE8max_sizeEv, @function
_ZNKSt6vectorISt4pairIiiESaIS1_EE8max_sizeEv:
.LFB9718:
	.cfi_startproc
	pushq	%rbp
	.cfi_def_cfa_offset 16
	.cfi_offset 6, -16
	movq	%rsp, %rbp
	.cfi_def_cfa_register 6
	subq	$16, %rsp
	movq	%rdi, -8(%rbp)
	movq	-8(%rbp), %rax
	movq	%rax, %rdi
	call	_ZNKSt12_Vector_baseISt4pairIiiESaIS1_EE19_M_get_Tp_allocatorEv
	movq	%rax, %rdi
	call	_ZNSt6vectorISt4pairIiiESaIS1_EE11_S_max_sizeERKS2_
	leave
	.cfi_def_cfa 7, 8
	ret
	.cfi_endproc
.LFE9718:
	.size	_ZNKSt6vectorISt4pairIiiESaIS1_EE8max_sizeEv, .-_ZNKSt6vectorISt4pairIiiESaIS1_EE8max_sizeEv
	.section	.text._ZNKSt6vectorISt4pairIiiESaIS1_EE4sizeEv,"axG",@progbits,_ZNKSt6vectorISt4pairIiiESaIS1_EE4sizeEv,comdat
	.align 2
	.weak	_ZNKSt6vectorISt4pairIiiESaIS1_EE4sizeEv
	.type	_ZNKSt6vectorISt4pairIiiESaIS1_EE4sizeEv, @function
_ZNKSt6vectorISt4pairIiiESaIS1_EE4sizeEv:
.LFB9719:
	.cfi_startproc
	pushq	%rbp
	.cfi_def_cfa_offset 16
	.cfi_offset 6, -16
	movq	%rsp, %rbp
	.cfi_def_cfa_register 6
	movq	%rdi, -8(%rbp)
	movq	-8(%rbp), %rax
	movq	8(%rax), %rdx
	movq	-8(%rbp), %rax
	movq	(%rax), %rax
	subq	%rax, %rdx
	movq	%rdx, %rax
	sarq	$3, %rax
	popq	%rbp
	.cfi_def_cfa 7, 8
	ret
	.cfi_endproc
.LFE9719:
	.size	_ZNKSt6vectorISt4pairIiiESaIS1_EE4sizeEv, .-_ZNKSt6vectorISt4pairIiiESaIS1_EE4sizeEv
	.section	.text._ZNSt16allocator_traitsISaISt4pairIiiEEE8allocateERS2_m,"axG",@progbits,_ZNSt16allocator_traitsISaISt4pairIiiEEE8allocateERS2_m,comdat
	.weak	_ZNSt16allocator_traitsISaISt4pairIiiEEE8allocateERS2_m
	.type	_ZNSt16allocator_traitsISaISt4pairIiiEEE8allocateERS2_m, @function
_ZNSt16allocator_traitsISaISt4pairIiiEEE8allocateERS2_m:
.LFB9720:
	.cfi_startproc
	pushq	%rbp
	.cfi_def_cfa_offset 16
	.cfi_offset 6, -16
	movq	%rsp, %rbp
	.cfi_def_cfa_register 6
	subq	$16, %rsp
	movq	%rdi, -8(%rbp)
	movq	%rsi, -16(%rbp)
	movq	-16(%rbp), %rcx
	movq	-8(%rbp), %rax
	movl	$0, %edx
	movq	%rcx, %rsi
	movq	%rax, %rdi
	call	_ZN9__gnu_cxx13new_allocatorISt4pairIiiEE8allocateEmPKv
	leave
	.cfi_def_cfa 7, 8
	ret
	.cfi_endproc
.LFE9720:
	.size	_ZNSt16allocator_traitsISaISt4pairIiiEEE8allocateERS2_m, .-_ZNSt16allocator_traitsISaISt4pairIiiEEE8allocateERS2_m
	.section	.text._ZNSt6vectorISt4pairIiiESaIS1_EE14_S_do_relocateEPS1_S4_S4_RS2_St17integral_constantIbLb1EE,"axG",@progbits,_ZNSt6vectorISt4pairIiiESaIS1_EE14_S_do_relocateEPS1_S4_S4_RS2_St17integral_constantIbLb1EE,comdat
	.weak	_ZNSt6vectorISt4pairIiiESaIS1_EE14_S_do_relocateEPS1_S4_S4_RS2_St17integral_constantIbLb1EE
	.type	_ZNSt6vectorISt4pairIiiESaIS1_EE14_S_do_relocateEPS1_S4_S4_RS2_St17integral_constantIbLb1EE, @function
_ZNSt6vectorISt4pairIiiESaIS1_EE14_S_do_relocateEPS1_S4_S4_RS2_St17integral_constantIbLb1EE:
.LFB9721:
	.cfi_startproc
	pushq	%rbp
	.cfi_def_cfa_offset 16
	.cfi_offset 6, -16
	movq	%rsp, %rbp
	.cfi_def_cfa_register 6
	subq	$32, %rsp
	movq	%rdi, -8(%rbp)
	movq	%rsi, -16(%rbp)
	movq	%rdx, -24(%rbp)
	movq	%rcx, -32(%rbp)
	movq	-32(%rbp), %rcx
	movq	-24(%rbp), %rdx
	movq	-16(%rbp), %rsi
	movq	-8(%rbp), %rax
	movq	%rax, %rdi
	call	_ZSt12__relocate_aIPSt4pairIiiES2_SaIS1_EET0_T_S5_S4_RT1_
	leave
	.cfi_def_cfa 7, 8
	ret
	.cfi_endproc
.LFE9721:
	.size	_ZNSt6vectorISt4pairIiiESaIS1_EE14_S_do_relocateEPS1_S4_S4_RS2_St17integral_constantIbLb1EE, .-_ZNSt6vectorISt4pairIiiESaIS1_EE14_S_do_relocateEPS1_S4_S4_RS2_St17integral_constantIbLb1EE
	.section	.text._ZSt32__make_move_if_noexcept_iteratorISt4pairIiiESt13move_iteratorIPS1_EET0_PT_,"axG",@progbits,_ZSt32__make_move_if_noexcept_iteratorISt4pairIiiESt13move_iteratorIPS1_EET0_PT_,comdat
	.weak	_ZSt32__make_move_if_noexcept_iteratorISt4pairIiiESt13move_iteratorIPS1_EET0_PT_
	.type	_ZSt32__make_move_if_noexcept_iteratorISt4pairIiiESt13move_iteratorIPS1_EET0_PT_, @function
_ZSt32__make_move_if_noexcept_iteratorISt4pairIiiESt13move_iteratorIPS1_EET0_PT_:
.LFB9722:
	.cfi_startproc
	pushq	%rbp
	.cfi_def_cfa_offset 16
	.cfi_offset 6, -16
	movq	%rsp, %rbp
	.cfi_def_cfa_register 6
	subq	$32, %rsp
	movq	%rdi, -24(%rbp)
	movq	-24(%rbp), %rdx
	leaq	-8(%rbp), %rax
	movq	%rdx, %rsi
	movq	%rax, %rdi
	call	_ZNSt13move_iteratorIPSt4pairIiiEEC1ES2_
	movq	-8(%rbp), %rax
	leave
	.cfi_def_cfa 7, 8
	ret
	.cfi_endproc
.LFE9722:
	.size	_ZSt32__make_move_if_noexcept_iteratorISt4pairIiiESt13move_iteratorIPS1_EET0_PT_, .-_ZSt32__make_move_if_noexcept_iteratorISt4pairIiiESt13move_iteratorIPS1_EET0_PT_
	.section	.text._ZSt22__uninitialized_copy_aISt13move_iteratorIPSt4pairIiiEES3_S2_ET0_T_S6_S5_RSaIT1_E,"axG",@progbits,_ZSt22__uninitialized_copy_aISt13move_iteratorIPSt4pairIiiEES3_S2_ET0_T_S6_S5_RSaIT1_E,comdat
	.weak	_ZSt22__uninitialized_copy_aISt13move_iteratorIPSt4pairIiiEES3_S2_ET0_T_S6_S5_RSaIT1_E
	.type	_ZSt22__uninitialized_copy_aISt13move_iteratorIPSt4pairIiiEES3_S2_ET0_T_S6_S5_RSaIT1_E, @function
_ZSt22__uninitialized_copy_aISt13move_iteratorIPSt4pairIiiEES3_S2_ET0_T_S6_S5_RSaIT1_E:
.LFB9723:
	.cfi_startproc
	pushq	%rbp
	.cfi_def_cfa_offset 16
	.cfi_offset 6, -16
	movq	%rsp, %rbp
	.cfi_def_cfa_register 6
	subq	$32, %rsp
	movq	%rdi, -8(%rbp)
	movq	%rsi, -16(%rbp)
	movq	%rdx, -24(%rbp)
	movq	%rcx, -32(%rbp)
	movq	-24(%rbp), %rdx
	movq	-16(%rbp), %rcx
	movq	-8(%rbp), %rax
	movq	%rcx, %rsi
	movq	%rax, %rdi
	call	_ZSt18uninitialized_copyISt13move_iteratorIPSt4pairIiiEES3_ET0_T_S6_S5_
	leave
	.cfi_def_cfa 7, 8
	ret
	.cfi_endproc
.LFE9723:
	.size	_ZSt22__uninitialized_copy_aISt13move_iteratorIPSt4pairIiiEES3_S2_ET0_T_S6_S5_RSaIT1_E, .-_ZSt22__uninitialized_copy_aISt13move_iteratorIPSt4pairIiiEES3_S2_ET0_T_S6_S5_RSaIT1_E
	.section	.text._ZN9__gnu_cxx13new_allocatorISt4pairIiiEE7destroyIS2_EEvPT_,"axG",@progbits,_ZN9__gnu_cxx13new_allocatorISt4pairIiiEE7destroyIS2_EEvPT_,comdat
	.align 2
	.weak	_ZN9__gnu_cxx13new_allocatorISt4pairIiiEE7destroyIS2_EEvPT_
	.type	_ZN9__gnu_cxx13new_allocatorISt4pairIiiEE7destroyIS2_EEvPT_, @function
_ZN9__gnu_cxx13new_allocatorISt4pairIiiEE7destroyIS2_EEvPT_:
.LFB9724:
	.cfi_startproc
	pushq	%rbp
	.cfi_def_cfa_offset 16
	.cfi_offset 6, -16
	movq	%rsp, %rbp
	.cfi_def_cfa_register 6
	movq	%rdi, -8(%rbp)
	movq	%rsi, -16(%rbp)
	nop
	popq	%rbp
	.cfi_def_cfa 7, 8
	ret
	.cfi_endproc
.LFE9724:
	.size	_ZN9__gnu_cxx13new_allocatorISt4pairIiiEE7destroyIS2_EEvPT_, .-_ZN9__gnu_cxx13new_allocatorISt4pairIiiEE7destroyIS2_EEvPT_
	.section	.text._ZSt13__heap_selectIN9__gnu_cxx17__normal_iteratorIPSt4pairIiiESt6vectorIS3_SaIS3_EEEENS0_5__ops15_Iter_less_iterEEvT_SB_SB_T0_,"axG",@progbits,_ZSt13__heap_selectIN9__gnu_cxx17__normal_iteratorIPSt4pairIiiESt6vectorIS3_SaIS3_EEEENS0_5__ops15_Iter_less_iterEEvT_SB_SB_T0_,comdat
	.weak	_ZSt13__heap_selectIN9__gnu_cxx17__normal_iteratorIPSt4pairIiiESt6vectorIS3_SaIS3_EEEENS0_5__ops15_Iter_less_iterEEvT_SB_SB_T0_
	.type	_ZSt13__heap_selectIN9__gnu_cxx17__normal_iteratorIPSt4pairIiiESt6vectorIS3_SaIS3_EEEENS0_5__ops15_Iter_less_iterEEvT_SB_SB_T0_, @function
_ZSt13__heap_selectIN9__gnu_cxx17__normal_iteratorIPSt4pairIiiESt6vectorIS3_SaIS3_EEEENS0_5__ops15_Iter_less_iterEEvT_SB_SB_T0_:
.LFB9725:
	.cfi_startproc
	pushq	%rbp
	.cfi_def_cfa_offset 16
	.cfi_offset 6, -16
	movq	%rsp, %rbp
	.cfi_def_cfa_register 6
	subq	$48, %rsp
	movq	%rdi, -24(%rbp)
	movq	%rsi, -32(%rbp)
	movq	%rdx, -40(%rbp)
	movq	-32(%rbp), %rcx
	movq	-24(%rbp), %rax
	leaq	16(%rbp), %rdx
	movq	%rcx, %rsi
	movq	%rax, %rdi
	call	_ZSt11__make_heapIN9__gnu_cxx17__normal_iteratorIPSt4pairIiiESt6vectorIS3_SaIS3_EEEENS0_5__ops15_Iter_less_iterEEvT_SB_RT0_
	movq	-32(%rbp), %rax
	movq	%rax, -8(%rbp)
.L381:
	leaq	-40(%rbp), %rdx
	leaq	-8(%rbp), %rax
	movq	%rdx, %rsi
	movq	%rax, %rdi
	call	_ZN9__gnu_cxxltIPSt4pairIiiESt6vectorIS2_SaIS2_EEEEbRKNS_17__normal_iteratorIT_T0_EESC_
	testb	%al, %al
	je	.L382
	movq	-24(%rbp), %rdx
	movq	-8(%rbp), %rax
	movq	%rax, %rsi
	leaq	16(%rbp), %rdi
	call	_ZNK9__gnu_cxx5__ops15_Iter_less_iterclINS_17__normal_iteratorIPSt4pairIiiESt6vectorIS5_SaIS5_EEEESA_EEbT_T0_
	testb	%al, %al
	je	.L380
	movq	-8(%rbp), %rdx
	movq	-32(%rbp), %rsi
	movq	-24(%rbp), %rax
	leaq	16(%rbp), %rcx
	movq	%rax, %rdi
	call	_ZSt10__pop_heapIN9__gnu_cxx17__normal_iteratorIPSt4pairIiiESt6vectorIS3_SaIS3_EEEENS0_5__ops15_Iter_less_iterEEvT_SB_SB_RT0_
.L380:
	leaq	-8(%rbp), %rax
	movq	%rax, %rdi
	call	_ZN9__gnu_cxx17__normal_iteratorIPSt4pairIiiESt6vectorIS2_SaIS2_EEEppEv
	jmp	.L381
.L382:
	nop
	leave
	.cfi_def_cfa 7, 8
	ret
	.cfi_endproc
.LFE9725:
	.size	_ZSt13__heap_selectIN9__gnu_cxx17__normal_iteratorIPSt4pairIiiESt6vectorIS3_SaIS3_EEEENS0_5__ops15_Iter_less_iterEEvT_SB_SB_T0_, .-_ZSt13__heap_selectIN9__gnu_cxx17__normal_iteratorIPSt4pairIiiESt6vectorIS3_SaIS3_EEEENS0_5__ops15_Iter_less_iterEEvT_SB_SB_T0_
	.section	.text._ZSt11__sort_heapIN9__gnu_cxx17__normal_iteratorIPSt4pairIiiESt6vectorIS3_SaIS3_EEEENS0_5__ops15_Iter_less_iterEEvT_SB_RT0_,"axG",@progbits,_ZSt11__sort_heapIN9__gnu_cxx17__normal_iteratorIPSt4pairIiiESt6vectorIS3_SaIS3_EEEENS0_5__ops15_Iter_less_iterEEvT_SB_RT0_,comdat
	.weak	_ZSt11__sort_heapIN9__gnu_cxx17__normal_iteratorIPSt4pairIiiESt6vectorIS3_SaIS3_EEEENS0_5__ops15_Iter_less_iterEEvT_SB_RT0_
	.type	_ZSt11__sort_heapIN9__gnu_cxx17__normal_iteratorIPSt4pairIiiESt6vectorIS3_SaIS3_EEEENS0_5__ops15_Iter_less_iterEEvT_SB_RT0_, @function
_ZSt11__sort_heapIN9__gnu_cxx17__normal_iteratorIPSt4pairIiiESt6vectorIS3_SaIS3_EEEENS0_5__ops15_Iter_less_iterEEvT_SB_RT0_:
.LFB9726:
	.cfi_startproc
	pushq	%rbp
	.cfi_def_cfa_offset 16
	.cfi_offset 6, -16
	movq	%rsp, %rbp
	.cfi_def_cfa_register 6
	subq	$32, %rsp
	movq	%rdi, -8(%rbp)
	movq	%rsi, -16(%rbp)
	movq	%rdx, -24(%rbp)
.L385:
	leaq	-8(%rbp), %rdx
	leaq	-16(%rbp), %rax
	movq	%rdx, %rsi
	movq	%rax, %rdi
	call	_ZN9__gnu_cxxmiIPSt4pairIiiESt6vectorIS2_SaIS2_EEEENS_17__normal_iteratorIT_T0_E15difference_typeERKSA_SD_
	cmpq	$1, %rax
	setg	%al
	testb	%al, %al
	je	.L386
	leaq	-16(%rbp), %rax
	movq	%rax, %rdi
	call	_ZN9__gnu_cxx17__normal_iteratorIPSt4pairIiiESt6vectorIS2_SaIS2_EEEmmEv
	movq	-24(%rbp), %rcx
	movq	-16(%rbp), %rdx
	movq	-16(%rbp), %rsi
	movq	-8(%rbp), %rax
	movq	%rax, %rdi
	call	_ZSt10__pop_heapIN9__gnu_cxx17__normal_iteratorIPSt4pairIiiESt6vectorIS3_SaIS3_EEEENS0_5__ops15_Iter_less_iterEEvT_SB_SB_RT0_
	jmp	.L385
.L386:
	nop
	leave
	.cfi_def_cfa 7, 8
	ret
	.cfi_endproc
.LFE9726:
	.size	_ZSt11__sort_heapIN9__gnu_cxx17__normal_iteratorIPSt4pairIiiESt6vectorIS3_SaIS3_EEEENS0_5__ops15_Iter_less_iterEEvT_SB_RT0_, .-_ZSt11__sort_heapIN9__gnu_cxx17__normal_iteratorIPSt4pairIiiESt6vectorIS3_SaIS3_EEEENS0_5__ops15_Iter_less_iterEEvT_SB_RT0_
	.section	.text._ZNK9__gnu_cxx17__normal_iteratorIPSt4pairIiiESt6vectorIS2_SaIS2_EEEmiEl,"axG",@progbits,_ZNK9__gnu_cxx17__normal_iteratorIPSt4pairIiiESt6vectorIS2_SaIS2_EEEmiEl,comdat
	.align 2
	.weak	_ZNK9__gnu_cxx17__normal_iteratorIPSt4pairIiiESt6vectorIS2_SaIS2_EEEmiEl
	.type	_ZNK9__gnu_cxx17__normal_iteratorIPSt4pairIiiESt6vectorIS2_SaIS2_EEEmiEl, @function
_ZNK9__gnu_cxx17__normal_iteratorIPSt4pairIiiESt6vectorIS2_SaIS2_EEEmiEl:
.LFB9727:
	.cfi_startproc
	pushq	%rbp
	.cfi_def_cfa_offset 16
	.cfi_offset 6, -16
	movq	%rsp, %rbp
	.cfi_def_cfa_register 6
	subq	$32, %rsp
	movq	%rdi, -24(%rbp)
	movq	%rsi, -32(%rbp)
	movq	-24(%rbp), %rax
	movq	(%rax), %rax
	movq	-32(%rbp), %rdx
	salq	$3, %rdx
	negq	%rdx
	addq	%rdx, %rax
	movq	%rax, -8(%rbp)
	leaq	-8(%rbp), %rdx
	leaq	-16(%rbp), %rax
	movq	%rdx, %rsi
	movq	%rax, %rdi
	call	_ZN9__gnu_cxx17__normal_iteratorIPSt4pairIiiESt6vectorIS2_SaIS2_EEEC1ERKS3_
	movq	-16(%rbp), %rax
	leave
	.cfi_def_cfa 7, 8
	ret
	.cfi_endproc
.LFE9727:
	.size	_ZNK9__gnu_cxx17__normal_iteratorIPSt4pairIiiESt6vectorIS2_SaIS2_EEEmiEl, .-_ZNK9__gnu_cxx17__normal_iteratorIPSt4pairIiiESt6vectorIS2_SaIS2_EEEmiEl
	.section	.text._ZNK9__gnu_cxx5__ops15_Iter_less_iterclINS_17__normal_iteratorIPSt4pairIiiESt6vectorIS5_SaIS5_EEEESA_EEbT_T0_,"axG",@progbits,_ZNK9__gnu_cxx5__ops15_Iter_less_iterclINS_17__normal_iteratorIPSt4pairIiiESt6vectorIS5_SaIS5_EEEESA_EEbT_T0_,comdat
	.align 2
	.weak	_ZNK9__gnu_cxx5__ops15_Iter_less_iterclINS_17__normal_iteratorIPSt4pairIiiESt6vectorIS5_SaIS5_EEEESA_EEbT_T0_
	.type	_ZNK9__gnu_cxx5__ops15_Iter_less_iterclINS_17__normal_iteratorIPSt4pairIiiESt6vectorIS5_SaIS5_EEEESA_EEbT_T0_, @function
_ZNK9__gnu_cxx5__ops15_Iter_less_iterclINS_17__normal_iteratorIPSt4pairIiiESt6vectorIS5_SaIS5_EEEESA_EEbT_T0_:
.LFB9729:
	.cfi_startproc
	pushq	%rbp
	.cfi_def_cfa_offset 16
	.cfi_offset 6, -16
	movq	%rsp, %rbp
	.cfi_def_cfa_register 6
	pushq	%rbx
	subq	$40, %rsp
	.cfi_offset 3, -24
	movq	%rdi, -24(%rbp)
	movq	%rsi, -32(%rbp)
	movq	%rdx, -40(%rbp)
	leaq	-40(%rbp), %rax
	movq	%rax, %rdi
	call	_ZNK9__gnu_cxx17__normal_iteratorIPSt4pairIiiESt6vectorIS2_SaIS2_EEEdeEv
	movq	%rax, %rbx
	leaq	-32(%rbp), %rax
	movq	%rax, %rdi
	call	_ZNK9__gnu_cxx17__normal_iteratorIPSt4pairIiiESt6vectorIS2_SaIS2_EEEdeEv
	movq	%rbx, %rsi
	movq	%rax, %rdi
	call	_ZStltIiiEbRKSt4pairIT_T0_ES5_
	addq	$40, %rsp
	popq	%rbx
	popq	%rbp
	.cfi_def_cfa 7, 8
	ret
	.cfi_endproc
.LFE9729:
	.size	_ZNK9__gnu_cxx5__ops15_Iter_less_iterclINS_17__normal_iteratorIPSt4pairIiiESt6vectorIS5_SaIS5_EEEESA_EEbT_T0_, .-_ZNK9__gnu_cxx5__ops15_Iter_less_iterclINS_17__normal_iteratorIPSt4pairIiiESt6vectorIS5_SaIS5_EEEESA_EEbT_T0_
	.section	.text._ZSt22__move_median_to_firstIN9__gnu_cxx17__normal_iteratorIPSt4pairIiiESt6vectorIS3_SaIS3_EEEENS0_5__ops15_Iter_less_iterEEvT_SB_SB_SB_T0_,"axG",@progbits,_ZSt22__move_median_to_firstIN9__gnu_cxx17__normal_iteratorIPSt4pairIiiESt6vectorIS3_SaIS3_EEEENS0_5__ops15_Iter_less_iterEEvT_SB_SB_SB_T0_,comdat
	.weak	_ZSt22__move_median_to_firstIN9__gnu_cxx17__normal_iteratorIPSt4pairIiiESt6vectorIS3_SaIS3_EEEENS0_5__ops15_Iter_less_iterEEvT_SB_SB_SB_T0_
	.type	_ZSt22__move_median_to_firstIN9__gnu_cxx17__normal_iteratorIPSt4pairIiiESt6vectorIS3_SaIS3_EEEENS0_5__ops15_Iter_less_iterEEvT_SB_SB_SB_T0_, @function
_ZSt22__move_median_to_firstIN9__gnu_cxx17__normal_iteratorIPSt4pairIiiESt6vectorIS3_SaIS3_EEEENS0_5__ops15_Iter_less_iterEEvT_SB_SB_SB_T0_:
.LFB9728:
	.cfi_startproc
	pushq	%rbp
	.cfi_def_cfa_offset 16
	.cfi_offset 6, -16
	movq	%rsp, %rbp
	.cfi_def_cfa_register 6
	subq	$32, %rsp
	movq	%rdi, -8(%rbp)
	movq	%rsi, -16(%rbp)
	movq	%rdx, -24(%rbp)
	movq	%rcx, -32(%rbp)
	movq	-24(%rbp), %rdx
	movq	-16(%rbp), %rax
	movq	%rax, %rsi
	leaq	16(%rbp), %rdi
	call	_ZNK9__gnu_cxx5__ops15_Iter_less_iterclINS_17__normal_iteratorIPSt4pairIiiESt6vectorIS5_SaIS5_EEEESA_EEbT_T0_
	testb	%al, %al
	je	.L392
	movq	-32(%rbp), %rdx
	movq	-24(%rbp), %rax
	movq	%rax, %rsi
	leaq	16(%rbp), %rdi
	call	_ZNK9__gnu_cxx5__ops15_Iter_less_iterclINS_17__normal_iteratorIPSt4pairIiiESt6vectorIS5_SaIS5_EEEESA_EEbT_T0_
	testb	%al, %al
	je	.L393
	movq	-24(%rbp), %rdx
	movq	-8(%rbp), %rax
	movq	%rdx, %rsi
	movq	%rax, %rdi
	call	_ZSt9iter_swapIN9__gnu_cxx17__normal_iteratorIPSt4pairIiiESt6vectorIS3_SaIS3_EEEES8_EvT_T0_
	jmp	.L398
.L393:
	movq	-32(%rbp), %rdx
	movq	-16(%rbp), %rax
	movq	%rax, %rsi
	leaq	16(%rbp), %rdi
	call	_ZNK9__gnu_cxx5__ops15_Iter_less_iterclINS_17__normal_iteratorIPSt4pairIiiESt6vectorIS5_SaIS5_EEEESA_EEbT_T0_
	testb	%al, %al
	je	.L395
	movq	-32(%rbp), %rdx
	movq	-8(%rbp), %rax
	movq	%rdx, %rsi
	movq	%rax, %rdi
	call	_ZSt9iter_swapIN9__gnu_cxx17__normal_iteratorIPSt4pairIiiESt6vectorIS3_SaIS3_EEEES8_EvT_T0_
	jmp	.L398
.L395:
	movq	-16(%rbp), %rdx
	movq	-8(%rbp), %rax
	movq	%rdx, %rsi
	movq	%rax, %rdi
	call	_ZSt9iter_swapIN9__gnu_cxx17__normal_iteratorIPSt4pairIiiESt6vectorIS3_SaIS3_EEEES8_EvT_T0_
	jmp	.L398
.L392:
	movq	-32(%rbp), %rdx
	movq	-16(%rbp), %rax
	movq	%rax, %rsi
	leaq	16(%rbp), %rdi
	call	_ZNK9__gnu_cxx5__ops15_Iter_less_iterclINS_17__normal_iteratorIPSt4pairIiiESt6vectorIS5_SaIS5_EEEESA_EEbT_T0_
	testb	%al, %al
	je	.L396
	movq	-16(%rbp), %rdx
	movq	-8(%rbp), %rax
	movq	%rdx, %rsi
	movq	%rax, %rdi
	call	_ZSt9iter_swapIN9__gnu_cxx17__normal_iteratorIPSt4pairIiiESt6vectorIS3_SaIS3_EEEES8_EvT_T0_
	jmp	.L398
.L396:
	movq	-32(%rbp), %rdx
	movq	-24(%rbp), %rax
	movq	%rax, %rsi
	leaq	16(%rbp), %rdi
	call	_ZNK9__gnu_cxx5__ops15_Iter_less_iterclINS_17__normal_iteratorIPSt4pairIiiESt6vectorIS5_SaIS5_EEEESA_EEbT_T0_
	testb	%al, %al
	je	.L397
	movq	-32(%rbp), %rdx
	movq	-8(%rbp), %rax
	movq	%rdx, %rsi
	movq	%rax, %rdi
	call	_ZSt9iter_swapIN9__gnu_cxx17__normal_iteratorIPSt4pairIiiESt6vectorIS3_SaIS3_EEEES8_EvT_T0_
	jmp	.L398
.L397:
	movq	-24(%rbp), %rdx
	movq	-8(%rbp), %rax
	movq	%rdx, %rsi
	movq	%rax, %rdi
	call	_ZSt9iter_swapIN9__gnu_cxx17__normal_iteratorIPSt4pairIiiESt6vectorIS3_SaIS3_EEEES8_EvT_T0_
.L398:
	nop
	leave
	.cfi_def_cfa 7, 8
	ret
	.cfi_endproc
.LFE9728:
	.size	_ZSt22__move_median_to_firstIN9__gnu_cxx17__normal_iteratorIPSt4pairIiiESt6vectorIS3_SaIS3_EEEENS0_5__ops15_Iter_less_iterEEvT_SB_SB_SB_T0_, .-_ZSt22__move_median_to_firstIN9__gnu_cxx17__normal_iteratorIPSt4pairIiiESt6vectorIS3_SaIS3_EEEENS0_5__ops15_Iter_less_iterEEvT_SB_SB_SB_T0_
	.section	.text._ZSt21__unguarded_partitionIN9__gnu_cxx17__normal_iteratorIPSt4pairIiiESt6vectorIS3_SaIS3_EEEENS0_5__ops15_Iter_less_iterEET_SB_SB_SB_T0_,"axG",@progbits,_ZSt21__unguarded_partitionIN9__gnu_cxx17__normal_iteratorIPSt4pairIiiESt6vectorIS3_SaIS3_EEEENS0_5__ops15_Iter_less_iterEET_SB_SB_SB_T0_,comdat
	.weak	_ZSt21__unguarded_partitionIN9__gnu_cxx17__normal_iteratorIPSt4pairIiiESt6vectorIS3_SaIS3_EEEENS0_5__ops15_Iter_less_iterEET_SB_SB_SB_T0_
	.type	_ZSt21__unguarded_partitionIN9__gnu_cxx17__normal_iteratorIPSt4pairIiiESt6vectorIS3_SaIS3_EEEENS0_5__ops15_Iter_less_iterEET_SB_SB_SB_T0_, @function
_ZSt21__unguarded_partitionIN9__gnu_cxx17__normal_iteratorIPSt4pairIiiESt6vectorIS3_SaIS3_EEEENS0_5__ops15_Iter_less_iterEET_SB_SB_SB_T0_:
.LFB9730:
	.cfi_startproc
	pushq	%rbp
	.cfi_def_cfa_offset 16
	.cfi_offset 6, -16
	movq	%rsp, %rbp
	.cfi_def_cfa_register 6
	subq	$32, %rsp
	movq	%rdi, -8(%rbp)
	movq	%rsi, -16(%rbp)
	movq	%rdx, -24(%rbp)
.L401:
	movq	-24(%rbp), %rdx
	movq	-8(%rbp), %rax
	movq	%rax, %rsi
	leaq	16(%rbp), %rdi
	call	_ZNK9__gnu_cxx5__ops15_Iter_less_iterclINS_17__normal_iteratorIPSt4pairIiiESt6vectorIS5_SaIS5_EEEESA_EEbT_T0_
	testb	%al, %al
	je	.L400
	leaq	-8(%rbp), %rax
	movq	%rax, %rdi
	call	_ZN9__gnu_cxx17__normal_iteratorIPSt4pairIiiESt6vectorIS2_SaIS2_EEEppEv
	jmp	.L401
.L400:
	leaq	-16(%rbp), %rax
	movq	%rax, %rdi
	call	_ZN9__gnu_cxx17__normal_iteratorIPSt4pairIiiESt6vectorIS2_SaIS2_EEEmmEv
.L403:
	movq	-16(%rbp), %rdx
	movq	-24(%rbp), %rax
	movq	%rax, %rsi
	leaq	16(%rbp), %rdi
	call	_ZNK9__gnu_cxx5__ops15_Iter_less_iterclINS_17__normal_iteratorIPSt4pairIiiESt6vectorIS5_SaIS5_EEEESA_EEbT_T0_
	testb	%al, %al
	je	.L402
	leaq	-16(%rbp), %rax
	movq	%rax, %rdi
	call	_ZN9__gnu_cxx17__normal_iteratorIPSt4pairIiiESt6vectorIS2_SaIS2_EEEmmEv
	jmp	.L403
.L402:
	leaq	-16(%rbp), %rdx
	leaq	-8(%rbp), %rax
	movq	%rdx, %rsi
	movq	%rax, %rdi
	call	_ZN9__gnu_cxxltIPSt4pairIiiESt6vectorIS2_SaIS2_EEEEbRKNS_17__normal_iteratorIT_T0_EESC_
	xorl	$1, %eax
	testb	%al, %al
	je	.L404
	movq	-8(%rbp), %rax
	jmp	.L406
.L404:
	movq	-16(%rbp), %rdx
	movq	-8(%rbp), %rax
	movq	%rdx, %rsi
	movq	%rax, %rdi
	call	_ZSt9iter_swapIN9__gnu_cxx17__normal_iteratorIPSt4pairIiiESt6vectorIS3_SaIS3_EEEES8_EvT_T0_
	leaq	-8(%rbp), %rax
	movq	%rax, %rdi
	call	_ZN9__gnu_cxx17__normal_iteratorIPSt4pairIiiESt6vectorIS2_SaIS2_EEEppEv
	jmp	.L401
.L406:
	leave
	.cfi_def_cfa 7, 8
	ret
	.cfi_endproc
.LFE9730:
	.size	_ZSt21__unguarded_partitionIN9__gnu_cxx17__normal_iteratorIPSt4pairIiiESt6vectorIS3_SaIS3_EEEENS0_5__ops15_Iter_less_iterEET_SB_SB_SB_T0_, .-_ZSt21__unguarded_partitionIN9__gnu_cxx17__normal_iteratorIPSt4pairIiiESt6vectorIS3_SaIS3_EEEENS0_5__ops15_Iter_less_iterEET_SB_SB_SB_T0_
	.section	.text._ZN9__gnu_cxx17__normal_iteratorIPSt4pairIiiESt6vectorIS2_SaIS2_EEEppEv,"axG",@progbits,_ZN9__gnu_cxx17__normal_iteratorIPSt4pairIiiESt6vectorIS2_SaIS2_EEEppEv,comdat
	.align 2
	.weak	_ZN9__gnu_cxx17__normal_iteratorIPSt4pairIiiESt6vectorIS2_SaIS2_EEEppEv
	.type	_ZN9__gnu_cxx17__normal_iteratorIPSt4pairIiiESt6vectorIS2_SaIS2_EEEppEv, @function
_ZN9__gnu_cxx17__normal_iteratorIPSt4pairIiiESt6vectorIS2_SaIS2_EEEppEv:
.LFB9731:
	.cfi_startproc
	pushq	%rbp
	.cfi_def_cfa_offset 16
	.cfi_offset 6, -16
	movq	%rsp, %rbp
	.cfi_def_cfa_register 6
	movq	%rdi, -8(%rbp)
	movq	-8(%rbp), %rax
	movq	(%rax), %rax
	leaq	8(%rax), %rdx
	movq	-8(%rbp), %rax
	movq	%rdx, (%rax)
	movq	-8(%rbp), %rax
	popq	%rbp
	.cfi_def_cfa 7, 8
	ret
	.cfi_endproc
.LFE9731:
	.size	_ZN9__gnu_cxx17__normal_iteratorIPSt4pairIiiESt6vectorIS2_SaIS2_EEEppEv, .-_ZN9__gnu_cxx17__normal_iteratorIPSt4pairIiiESt6vectorIS2_SaIS2_EEEppEv
	.section	.text._ZSt13move_backwardIN9__gnu_cxx17__normal_iteratorIPSt4pairIiiESt6vectorIS3_SaIS3_EEEES8_ET0_T_SA_S9_,"axG",@progbits,_ZSt13move_backwardIN9__gnu_cxx17__normal_iteratorIPSt4pairIiiESt6vectorIS3_SaIS3_EEEES8_ET0_T_SA_S9_,comdat
	.weak	_ZSt13move_backwardIN9__gnu_cxx17__normal_iteratorIPSt4pairIiiESt6vectorIS3_SaIS3_EEEES8_ET0_T_SA_S9_
	.type	_ZSt13move_backwardIN9__gnu_cxx17__normal_iteratorIPSt4pairIiiESt6vectorIS3_SaIS3_EEEES8_ET0_T_SA_S9_, @function
_ZSt13move_backwardIN9__gnu_cxx17__normal_iteratorIPSt4pairIiiESt6vectorIS3_SaIS3_EEEES8_ET0_T_SA_S9_:
.LFB9732:
	.cfi_startproc
	pushq	%rbp
	.cfi_def_cfa_offset 16
	.cfi_offset 6, -16
	movq	%rsp, %rbp
	.cfi_def_cfa_register 6
	pushq	%rbx
	subq	$40, %rsp
	.cfi_offset 3, -24
	movq	%rdi, -24(%rbp)
	movq	%rsi, -32(%rbp)
	movq	%rdx, -40(%rbp)
	movq	-32(%rbp), %rax
	movq	%rax, %rdi
	call	_ZSt12__miter_baseIN9__gnu_cxx17__normal_iteratorIPSt4pairIiiESt6vectorIS3_SaIS3_EEEEET_S9_
	movq	%rax, %rbx
	movq	-24(%rbp), %rax
	movq	%rax, %rdi
	call	_ZSt12__miter_baseIN9__gnu_cxx17__normal_iteratorIPSt4pairIiiESt6vectorIS3_SaIS3_EEEEET_S9_
	movq	%rax, %rcx
	movq	-40(%rbp), %rax
	movq	%rax, %rdx
	movq	%rbx, %rsi
	movq	%rcx, %rdi
	call	_ZSt23__copy_move_backward_a2ILb1EN9__gnu_cxx17__normal_iteratorIPSt4pairIiiESt6vectorIS3_SaIS3_EEEES8_ET1_T0_SA_S9_
	addq	$40, %rsp
	popq	%rbx
	popq	%rbp
	.cfi_def_cfa 7, 8
	ret
	.cfi_endproc
.LFE9732:
	.size	_ZSt13move_backwardIN9__gnu_cxx17__normal_iteratorIPSt4pairIiiESt6vectorIS3_SaIS3_EEEES8_ET0_T_SA_S9_, .-_ZSt13move_backwardIN9__gnu_cxx17__normal_iteratorIPSt4pairIiiESt6vectorIS3_SaIS3_EEEES8_ET0_T_SA_S9_
	.section	.text._ZNSt4pairIiiEaSEOS0_,"axG",@progbits,_ZNSt4pairIiiEaSEOS0_,comdat
	.align 2
	.weak	_ZNSt4pairIiiEaSEOS0_
	.type	_ZNSt4pairIiiEaSEOS0_, @function
_ZNSt4pairIiiEaSEOS0_:
.LFB9733:
	.cfi_startproc
	pushq	%rbp
	.cfi_def_cfa_offset 16
	.cfi_offset 6, -16
	movq	%rsp, %rbp
	.cfi_def_cfa_register 6
	subq	$16, %rsp
	movq	%rdi, -8(%rbp)
	movq	%rsi, -16(%rbp)
	movq	-16(%rbp), %rax
	movq	%rax, %rdi
	call	_ZSt7forwardIiEOT_RNSt16remove_referenceIS0_E4typeE
	movl	(%rax), %edx
	movq	-8(%rbp), %rax
	movl	%edx, (%rax)
	movq	-16(%rbp), %rax
	addq	$4, %rax
	movq	%rax, %rdi
	call	_ZSt7forwardIiEOT_RNSt16remove_referenceIS0_E4typeE
	movl	(%rax), %edx
	movq	-8(%rbp), %rax
	movl	%edx, 4(%rax)
	movq	-8(%rbp), %rax
	leave
	.cfi_def_cfa 7, 8
	ret
	.cfi_endproc
.LFE9733:
	.size	_ZNSt4pairIiiEaSEOS0_, .-_ZNSt4pairIiiEaSEOS0_
	.section	.text._ZSt25__unguarded_linear_insertIN9__gnu_cxx17__normal_iteratorIPSt4pairIiiESt6vectorIS3_SaIS3_EEEENS0_5__ops14_Val_less_iterEEvT_T0_,"axG",@progbits,_ZSt25__unguarded_linear_insertIN9__gnu_cxx17__normal_iteratorIPSt4pairIiiESt6vectorIS3_SaIS3_EEEENS0_5__ops14_Val_less_iterEEvT_T0_,comdat
	.weak	_ZSt25__unguarded_linear_insertIN9__gnu_cxx17__normal_iteratorIPSt4pairIiiESt6vectorIS3_SaIS3_EEEENS0_5__ops14_Val_less_iterEEvT_T0_
	.type	_ZSt25__unguarded_linear_insertIN9__gnu_cxx17__normal_iteratorIPSt4pairIiiESt6vectorIS3_SaIS3_EEEENS0_5__ops14_Val_less_iterEEvT_T0_, @function
_ZSt25__unguarded_linear_insertIN9__gnu_cxx17__normal_iteratorIPSt4pairIiiESt6vectorIS3_SaIS3_EEEENS0_5__ops14_Val_less_iterEEvT_T0_:
.LFB9734:
	.cfi_startproc
	pushq	%rbp
	.cfi_def_cfa_offset 16
	.cfi_offset 6, -16
	movq	%rsp, %rbp
	.cfi_def_cfa_register 6
	pushq	%rbx
	subq	$40, %rsp
	.cfi_offset 3, -24
	movq	%rdi, -40(%rbp)
	leaq	-40(%rbp), %rax
	movq	%rax, %rdi
	call	_ZNK9__gnu_cxx17__normal_iteratorIPSt4pairIiiESt6vectorIS2_SaIS2_EEEdeEv
	movq	%rax, %rdi
	call	_ZSt4moveIRSt4pairIiiEEONSt16remove_referenceIT_E4typeEOS4_
	movq	(%rax), %rax
	movq	%rax, -24(%rbp)
	movq	-40(%rbp), %rax
	movq	%rax, -32(%rbp)
	leaq	-32(%rbp), %rax
	movq	%rax, %rdi
	call	_ZN9__gnu_cxx17__normal_iteratorIPSt4pairIiiESt6vectorIS2_SaIS2_EEEmmEv
.L415:
	movq	-32(%rbp), %rdx
	leaq	-24(%rbp), %rax
	movq	%rax, %rsi
	leaq	16(%rbp), %rdi
	call	_ZNK9__gnu_cxx5__ops14_Val_less_iterclISt4pairIiiENS_17__normal_iteratorIPS4_St6vectorIS4_SaIS4_EEEEEEbRT_T0_
	testb	%al, %al
	je	.L414
	leaq	-32(%rbp), %rax
	movq	%rax, %rdi
	call	_ZNK9__gnu_cxx17__normal_iteratorIPSt4pairIiiESt6vectorIS2_SaIS2_EEEdeEv
	movq	%rax, %rdi
	call	_ZSt4moveIRSt4pairIiiEEONSt16remove_referenceIT_E4typeEOS4_
	movq	%rax, %rbx
	leaq	-40(%rbp), %rax
	movq	%rax, %rdi
	call	_ZNK9__gnu_cxx17__normal_iteratorIPSt4pairIiiESt6vectorIS2_SaIS2_EEEdeEv
	movq	%rbx, %rsi
	movq	%rax, %rdi
	call	_ZNSt4pairIiiEaSEOS0_
	movq	-32(%rbp), %rax
	movq	%rax, -40(%rbp)
	leaq	-32(%rbp), %rax
	movq	%rax, %rdi
	call	_ZN9__gnu_cxx17__normal_iteratorIPSt4pairIiiESt6vectorIS2_SaIS2_EEEmmEv
	jmp	.L415
.L414:
	leaq	-24(%rbp), %rax
	movq	%rax, %rdi
	call	_ZSt4moveIRSt4pairIiiEEONSt16remove_referenceIT_E4typeEOS4_
	movq	%rax, %rbx
	leaq	-40(%rbp), %rax
	movq	%rax, %rdi
	call	_ZNK9__gnu_cxx17__normal_iteratorIPSt4pairIiiESt6vectorIS2_SaIS2_EEEdeEv
	movq	%rbx, %rsi
	movq	%rax, %rdi
	call	_ZNSt4pairIiiEaSEOS0_
	nop
	addq	$40, %rsp
	popq	%rbx
	popq	%rbp
	.cfi_def_cfa 7, 8
	ret
	.cfi_endproc
.LFE9734:
	.size	_ZSt25__unguarded_linear_insertIN9__gnu_cxx17__normal_iteratorIPSt4pairIiiESt6vectorIS3_SaIS3_EEEENS0_5__ops14_Val_less_iterEEvT_T0_, .-_ZSt25__unguarded_linear_insertIN9__gnu_cxx17__normal_iteratorIPSt4pairIiiESt6vectorIS3_SaIS3_EEEENS0_5__ops14_Val_less_iterEEvT_T0_
	.section	.text._ZN9__gnu_cxx13new_allocatorISt10_List_nodeIiEE8allocateEmPKv,"axG",@progbits,_ZN9__gnu_cxx13new_allocatorISt10_List_nodeIiEE8allocateEmPKv,comdat
	.align 2
	.weak	_ZN9__gnu_cxx13new_allocatorISt10_List_nodeIiEE8allocateEmPKv
	.type	_ZN9__gnu_cxx13new_allocatorISt10_List_nodeIiEE8allocateEmPKv, @function
_ZN9__gnu_cxx13new_allocatorISt10_List_nodeIiEE8allocateEmPKv:
.LFB9826:
	.cfi_startproc
	pushq	%rbp
	.cfi_def_cfa_offset 16
	.cfi_offset 6, -16
	movq	%rsp, %rbp
	.cfi_def_cfa_register 6
	subq	$32, %rsp
	movq	%rdi, -8(%rbp)
	movq	%rsi, -16(%rbp)
	movq	%rdx, -24(%rbp)
	movq	-8(%rbp), %rax
	movq	%rax, %rdi
	call	_ZNK9__gnu_cxx13new_allocatorISt10_List_nodeIiEE8max_sizeEv
	cmpq	%rax, -16(%rbp)
	seta	%al
	testb	%al, %al
	je	.L417
	call	_ZSt17__throw_bad_allocv@PLT
.L417:
	movq	-16(%rbp), %rdx
	movq	%rdx, %rax
	addq	%rax, %rax
	addq	%rdx, %rax
	salq	$3, %rax
	movq	%rax, %rdi
	call	_Znwm@PLT
	leave
	.cfi_def_cfa 7, 8
	ret
	.cfi_endproc
.LFE9826:
	.size	_ZN9__gnu_cxx13new_allocatorISt10_List_nodeIiEE8allocateEmPKv, .-_ZN9__gnu_cxx13new_allocatorISt10_List_nodeIiEE8allocateEmPKv
	.section	.text._ZN9__gnu_cxx13new_allocatorIiEC2Ev,"axG",@progbits,_ZN9__gnu_cxx13new_allocatorIiEC5Ev,comdat
	.align 2
	.weak	_ZN9__gnu_cxx13new_allocatorIiEC2Ev
	.type	_ZN9__gnu_cxx13new_allocatorIiEC2Ev, @function
_ZN9__gnu_cxx13new_allocatorIiEC2Ev:
.LFB9828:
	.cfi_startproc
	pushq	%rbp
	.cfi_def_cfa_offset 16
	.cfi_offset 6, -16
	movq	%rsp, %rbp
	.cfi_def_cfa_register 6
	movq	%rdi, -8(%rbp)
	nop
	popq	%rbp
	.cfi_def_cfa 7, 8
	ret
	.cfi_endproc
.LFE9828:
	.size	_ZN9__gnu_cxx13new_allocatorIiEC2Ev, .-_ZN9__gnu_cxx13new_allocatorIiEC2Ev
	.weak	_ZN9__gnu_cxx13new_allocatorIiEC1Ev
	.set	_ZN9__gnu_cxx13new_allocatorIiEC1Ev,_ZN9__gnu_cxx13new_allocatorIiEC2Ev
	.section	.text._ZNSt16allocator_traitsISaIPiEE8allocateERS1_m,"axG",@progbits,_ZNSt16allocator_traitsISaIPiEE8allocateERS1_m,comdat
	.weak	_ZNSt16allocator_traitsISaIPiEE8allocateERS1_m
	.type	_ZNSt16allocator_traitsISaIPiEE8allocateERS1_m, @function
_ZNSt16allocator_traitsISaIPiEE8allocateERS1_m:
.LFB9830:
	.cfi_startproc
	pushq	%rbp
	.cfi_def_cfa_offset 16
	.cfi_offset 6, -16
	movq	%rsp, %rbp
	.cfi_def_cfa_register 6
	subq	$16, %rsp
	movq	%rdi, -8(%rbp)
	movq	%rsi, -16(%rbp)
	movq	-16(%rbp), %rcx
	movq	-8(%rbp), %rax
	movl	$0, %edx
	movq	%rcx, %rsi
	movq	%rax, %rdi
	call	_ZN9__gnu_cxx13new_allocatorIPiE8allocateEmPKv
	leave
	.cfi_def_cfa 7, 8
	ret
	.cfi_endproc
.LFE9830:
	.size	_ZNSt16allocator_traitsISaIPiEE8allocateERS1_m, .-_ZNSt16allocator_traitsISaIPiEE8allocateERS1_m
	.section	.text._ZN9__gnu_cxx13new_allocatorIiE10deallocateEPim,"axG",@progbits,_ZN9__gnu_cxx13new_allocatorIiE10deallocateEPim,comdat
	.align 2
	.weak	_ZN9__gnu_cxx13new_allocatorIiE10deallocateEPim
	.type	_ZN9__gnu_cxx13new_allocatorIiE10deallocateEPim, @function
_ZN9__gnu_cxx13new_allocatorIiE10deallocateEPim:
.LFB9831:
	.cfi_startproc
	pushq	%rbp
	.cfi_def_cfa_offset 16
	.cfi_offset 6, -16
	movq	%rsp, %rbp
	.cfi_def_cfa_register 6
	subq	$32, %rsp
	movq	%rdi, -8(%rbp)
	movq	%rsi, -16(%rbp)
	movq	%rdx, -24(%rbp)
	movq	-16(%rbp), %rax
	movq	%rax, %rdi
	call	_ZdlPv@PLT
	nop
	leave
	.cfi_def_cfa 7, 8
	ret
	.cfi_endproc
.LFE9831:
	.size	_ZN9__gnu_cxx13new_allocatorIiE10deallocateEPim, .-_ZN9__gnu_cxx13new_allocatorIiE10deallocateEPim
	.section	.text._ZN9__gnu_cxx13new_allocatorIPiEC2Ev,"axG",@progbits,_ZN9__gnu_cxx13new_allocatorIPiEC5Ev,comdat
	.align 2
	.weak	_ZN9__gnu_cxx13new_allocatorIPiEC2Ev
	.type	_ZN9__gnu_cxx13new_allocatorIPiEC2Ev, @function
_ZN9__gnu_cxx13new_allocatorIPiEC2Ev:
.LFB9833:
	.cfi_startproc
	pushq	%rbp
	.cfi_def_cfa_offset 16
	.cfi_offset 6, -16
	movq	%rsp, %rbp
	.cfi_def_cfa_register 6
	movq	%rdi, -8(%rbp)
	nop
	popq	%rbp
	.cfi_def_cfa 7, 8
	ret
	.cfi_endproc
.LFE9833:
	.size	_ZN9__gnu_cxx13new_allocatorIPiEC2Ev, .-_ZN9__gnu_cxx13new_allocatorIPiEC2Ev
	.weak	_ZN9__gnu_cxx13new_allocatorIPiEC1Ev
	.set	_ZN9__gnu_cxx13new_allocatorIPiEC1Ev,_ZN9__gnu_cxx13new_allocatorIPiEC2Ev
	.section	.text._ZNSt16allocator_traitsISaIiEE8max_sizeERKS0_,"axG",@progbits,_ZNSt16allocator_traitsISaIiEE8max_sizeERKS0_,comdat
	.weak	_ZNSt16allocator_traitsISaIiEE8max_sizeERKS0_
	.type	_ZNSt16allocator_traitsISaIiEE8max_sizeERKS0_, @function
_ZNSt16allocator_traitsISaIiEE8max_sizeERKS0_:
.LFB9836:
	.cfi_startproc
	pushq	%rbp
	.cfi_def_cfa_offset 16
	.cfi_offset 6, -16
	movq	%rsp, %rbp
	.cfi_def_cfa_register 6
	subq	$16, %rsp
	movq	%rdi, -8(%rbp)
	movq	-8(%rbp), %rax
	movq	%rax, %rdi
	call	_ZNK9__gnu_cxx13new_allocatorIiE8max_sizeEv
	leave
	.cfi_def_cfa 7, 8
	ret
	.cfi_endproc
.LFE9836:
	.size	_ZNSt16allocator_traitsISaIiEE8max_sizeERKS0_, .-_ZNSt16allocator_traitsISaIiEE8max_sizeERKS0_
	.section	.text._ZSt4copyIPPiS1_ET0_T_S3_S2_,"axG",@progbits,_ZSt4copyIPPiS1_ET0_T_S3_S2_,comdat
	.weak	_ZSt4copyIPPiS1_ET0_T_S3_S2_
	.type	_ZSt4copyIPPiS1_ET0_T_S3_S2_, @function
_ZSt4copyIPPiS1_ET0_T_S3_S2_:
.LFB9837:
	.cfi_startproc
	pushq	%rbp
	.cfi_def_cfa_offset 16
	.cfi_offset 6, -16
	movq	%rsp, %rbp
	.cfi_def_cfa_register 6
	pushq	%rbx
	subq	$40, %rsp
	.cfi_offset 3, -24
	movq	%rdi, -24(%rbp)
	movq	%rsi, -32(%rbp)
	movq	%rdx, -40(%rbp)
	movq	-32(%rbp), %rax
	movq	%rax, %rdi
	call	_ZSt12__miter_baseIPPiET_S2_
	movq	%rax, %rbx
	movq	-24(%rbp), %rax
	movq	%rax, %rdi
	call	_ZSt12__miter_baseIPPiET_S2_
	movq	%rax, %rcx
	movq	-40(%rbp), %rax
	movq	%rax, %rdx
	movq	%rbx, %rsi
	movq	%rcx, %rdi
	call	_ZSt14__copy_move_a2ILb0EPPiS1_ET1_T0_S3_S2_
	addq	$40, %rsp
	popq	%rbx
	popq	%rbp
	.cfi_def_cfa 7, 8
	ret
	.cfi_endproc
.LFE9837:
	.size	_ZSt4copyIPPiS1_ET0_T_S3_S2_, .-_ZSt4copyIPPiS1_ET0_T_S3_S2_
	.section	.text._ZSt13copy_backwardIPPiS1_ET0_T_S3_S2_,"axG",@progbits,_ZSt13copy_backwardIPPiS1_ET0_T_S3_S2_,comdat
	.weak	_ZSt13copy_backwardIPPiS1_ET0_T_S3_S2_
	.type	_ZSt13copy_backwardIPPiS1_ET0_T_S3_S2_, @function
_ZSt13copy_backwardIPPiS1_ET0_T_S3_S2_:
.LFB9838:
	.cfi_startproc
	pushq	%rbp
	.cfi_def_cfa_offset 16
	.cfi_offset 6, -16
	movq	%rsp, %rbp
	.cfi_def_cfa_register 6
	pushq	%rbx
	subq	$40, %rsp
	.cfi_offset 3, -24
	movq	%rdi, -24(%rbp)
	movq	%rsi, -32(%rbp)
	movq	%rdx, -40(%rbp)
	movq	-32(%rbp), %rax
	movq	%rax, %rdi
	call	_ZSt12__miter_baseIPPiET_S2_
	movq	%rax, %rbx
	movq	-24(%rbp), %rax
	movq	%rax, %rdi
	call	_ZSt12__miter_baseIPPiET_S2_
	movq	%rax, %rcx
	movq	-40(%rbp), %rax
	movq	%rax, %rdx
	movq	%rbx, %rsi
	movq	%rcx, %rdi
	call	_ZSt23__copy_move_backward_a2ILb0EPPiS1_ET1_T0_S3_S2_
	addq	$40, %rsp
	popq	%rbx
	popq	%rbp
	.cfi_def_cfa 7, 8
	ret
	.cfi_endproc
.LFE9838:
	.size	_ZSt13copy_backwardIPPiS1_ET0_T_S3_S2_, .-_ZSt13copy_backwardIPPiS1_ET0_T_S3_S2_
	.section	.text._ZN9__gnu_cxx13new_allocatorIiE8allocateEmPKv,"axG",@progbits,_ZN9__gnu_cxx13new_allocatorIiE8allocateEmPKv,comdat
	.align 2
	.weak	_ZN9__gnu_cxx13new_allocatorIiE8allocateEmPKv
	.type	_ZN9__gnu_cxx13new_allocatorIiE8allocateEmPKv, @function
_ZN9__gnu_cxx13new_allocatorIiE8allocateEmPKv:
.LFB9839:
	.cfi_startproc
	pushq	%rbp
	.cfi_def_cfa_offset 16
	.cfi_offset 6, -16
	movq	%rsp, %rbp
	.cfi_def_cfa_register 6
	subq	$32, %rsp
	movq	%rdi, -8(%rbp)
	movq	%rsi, -16(%rbp)
	movq	%rdx, -24(%rbp)
	movq	-8(%rbp), %rax
	movq	%rax, %rdi
	call	_ZNK9__gnu_cxx13new_allocatorIiE8max_sizeEv
	cmpq	%rax, -16(%rbp)
	seta	%al
	testb	%al, %al
	je	.L431
	call	_ZSt17__throw_bad_allocv@PLT
.L431:
	movq	-16(%rbp), %rax
	salq	$2, %rax
	movq	%rax, %rdi
	call	_Znwm@PLT
	leave
	.cfi_def_cfa 7, 8
	ret
	.cfi_endproc
.LFE9839:
	.size	_ZN9__gnu_cxx13new_allocatorIiE8allocateEmPKv, .-_ZN9__gnu_cxx13new_allocatorIiE8allocateEmPKv
	.section	.text._ZNSt6vectorISt4pairIiiESaIS1_EE11_S_max_sizeERKS2_,"axG",@progbits,_ZNSt6vectorISt4pairIiiESaIS1_EE11_S_max_sizeERKS2_,comdat
	.weak	_ZNSt6vectorISt4pairIiiESaIS1_EE11_S_max_sizeERKS2_
	.type	_ZNSt6vectorISt4pairIiiESaIS1_EE11_S_max_sizeERKS2_, @function
_ZNSt6vectorISt4pairIiiESaIS1_EE11_S_max_sizeERKS2_:
.LFB9840:
	.cfi_startproc
	pushq	%rbp
	.cfi_def_cfa_offset 16
	.cfi_offset 6, -16
	movq	%rsp, %rbp
	.cfi_def_cfa_register 6
	subq	$32, %rsp
	movq	%rdi, -24(%rbp)
	movabsq	$1152921504606846975, %rax
	movq	%rax, -8(%rbp)
	movq	-24(%rbp), %rax
	movq	%rax, %rdi
	call	_ZNSt16allocator_traitsISaISt4pairIiiEEE8max_sizeERKS2_
	movq	%rax, -16(%rbp)
	leaq	-16(%rbp), %rdx
	leaq	-8(%rbp), %rax
	movq	%rdx, %rsi
	movq	%rax, %rdi
	call	_ZSt3minImERKT_S2_S2_
	movq	(%rax), %rax
	leave
	.cfi_def_cfa 7, 8
	ret
	.cfi_endproc
.LFE9840:
	.size	_ZNSt6vectorISt4pairIiiESaIS1_EE11_S_max_sizeERKS2_, .-_ZNSt6vectorISt4pairIiiESaIS1_EE11_S_max_sizeERKS2_
	.section	.text._ZNKSt12_Vector_baseISt4pairIiiESaIS1_EE19_M_get_Tp_allocatorEv,"axG",@progbits,_ZNKSt12_Vector_baseISt4pairIiiESaIS1_EE19_M_get_Tp_allocatorEv,comdat
	.align 2
	.weak	_ZNKSt12_Vector_baseISt4pairIiiESaIS1_EE19_M_get_Tp_allocatorEv
	.type	_ZNKSt12_Vector_baseISt4pairIiiESaIS1_EE19_M_get_Tp_allocatorEv, @function
_ZNKSt12_Vector_baseISt4pairIiiESaIS1_EE19_M_get_Tp_allocatorEv:
.LFB9841:
	.cfi_startproc
	pushq	%rbp
	.cfi_def_cfa_offset 16
	.cfi_offset 6, -16
	movq	%rsp, %rbp
	.cfi_def_cfa_register 6
	movq	%rdi, -8(%rbp)
	movq	-8(%rbp), %rax
	popq	%rbp
	.cfi_def_cfa 7, 8
	ret
	.cfi_endproc
.LFE9841:
	.size	_ZNKSt12_Vector_baseISt4pairIiiESaIS1_EE19_M_get_Tp_allocatorEv, .-_ZNKSt12_Vector_baseISt4pairIiiESaIS1_EE19_M_get_Tp_allocatorEv
	.section	.text._ZN9__gnu_cxx13new_allocatorISt4pairIiiEE8allocateEmPKv,"axG",@progbits,_ZN9__gnu_cxx13new_allocatorISt4pairIiiEE8allocateEmPKv,comdat
	.align 2
	.weak	_ZN9__gnu_cxx13new_allocatorISt4pairIiiEE8allocateEmPKv
	.type	_ZN9__gnu_cxx13new_allocatorISt4pairIiiEE8allocateEmPKv, @function
_ZN9__gnu_cxx13new_allocatorISt4pairIiiEE8allocateEmPKv:
.LFB9842:
	.cfi_startproc
	pushq	%rbp
	.cfi_def_cfa_offset 16
	.cfi_offset 6, -16
	movq	%rsp, %rbp
	.cfi_def_cfa_register 6
	subq	$32, %rsp
	movq	%rdi, -8(%rbp)
	movq	%rsi, -16(%rbp)
	movq	%rdx, -24(%rbp)
	movq	-8(%rbp), %rax
	movq	%rax, %rdi
	call	_ZNK9__gnu_cxx13new_allocatorISt4pairIiiEE8max_sizeEv
	cmpq	%rax, -16(%rbp)
	seta	%al
	testb	%al, %al
	je	.L438
	call	_ZSt17__throw_bad_allocv@PLT
.L438:
	movq	-16(%rbp), %rax
	salq	$3, %rax
	movq	%rax, %rdi
	call	_Znwm@PLT
	leave
	.cfi_def_cfa 7, 8
	ret
	.cfi_endproc
.LFE9842:
	.size	_ZN9__gnu_cxx13new_allocatorISt4pairIiiEE8allocateEmPKv, .-_ZN9__gnu_cxx13new_allocatorISt4pairIiiEE8allocateEmPKv
	.section	.text._ZSt12__relocate_aIPSt4pairIiiES2_SaIS1_EET0_T_S5_S4_RT1_,"axG",@progbits,_ZSt12__relocate_aIPSt4pairIiiES2_SaIS1_EET0_T_S5_S4_RT1_,comdat
	.weak	_ZSt12__relocate_aIPSt4pairIiiES2_SaIS1_EET0_T_S5_S4_RT1_
	.type	_ZSt12__relocate_aIPSt4pairIiiES2_SaIS1_EET0_T_S5_S4_RT1_, @function
_ZSt12__relocate_aIPSt4pairIiiES2_SaIS1_EET0_T_S5_S4_RT1_:
.LFB9843:
	.cfi_startproc
	pushq	%rbp
	.cfi_def_cfa_offset 16
	.cfi_offset 6, -16
	movq	%rsp, %rbp
	.cfi_def_cfa_register 6
	pushq	%r12
	pushq	%rbx
	subq	$32, %rsp
	.cfi_offset 12, -24
	.cfi_offset 3, -32
	movq	%rdi, -24(%rbp)
	movq	%rsi, -32(%rbp)
	movq	%rdx, -40(%rbp)
	movq	%rcx, -48(%rbp)
	movq	-40(%rbp), %rax
	movq	%rax, %rdi
	call	_ZSt12__niter_baseIPSt4pairIiiEET_S3_
	movq	%rax, %r12
	movq	-32(%rbp), %rax
	movq	%rax, %rdi
	call	_ZSt12__niter_baseIPSt4pairIiiEET_S3_
	movq	%rax, %rbx
	movq	-24(%rbp), %rax
	movq	%rax, %rdi
	call	_ZSt12__niter_baseIPSt4pairIiiEET_S3_
	movq	%rax, %rdi
	movq	-48(%rbp), %rax
	movq	%rax, %rcx
	movq	%r12, %rdx
	movq	%rbx, %rsi
	call	_ZSt14__relocate_a_1IPSt4pairIiiES2_SaIS1_EET0_T_S5_S4_RT1_
	addq	$32, %rsp
	popq	%rbx
	popq	%r12
	popq	%rbp
	.cfi_def_cfa 7, 8
	ret
	.cfi_endproc
.LFE9843:
	.size	_ZSt12__relocate_aIPSt4pairIiiES2_SaIS1_EET0_T_S5_S4_RT1_, .-_ZSt12__relocate_aIPSt4pairIiiES2_SaIS1_EET0_T_S5_S4_RT1_
	.section	.text._ZNSt13move_iteratorIPSt4pairIiiEEC2ES2_,"axG",@progbits,_ZNSt13move_iteratorIPSt4pairIiiEEC5ES2_,comdat
	.align 2
	.weak	_ZNSt13move_iteratorIPSt4pairIiiEEC2ES2_
	.type	_ZNSt13move_iteratorIPSt4pairIiiEEC2ES2_, @function
_ZNSt13move_iteratorIPSt4pairIiiEEC2ES2_:
.LFB9845:
	.cfi_startproc
	pushq	%rbp
	.cfi_def_cfa_offset 16
	.cfi_offset 6, -16
	movq	%rsp, %rbp
	.cfi_def_cfa_register 6
	movq	%rdi, -8(%rbp)
	movq	%rsi, -16(%rbp)
	movq	-8(%rbp), %rax
	movq	-16(%rbp), %rdx
	movq	%rdx, (%rax)
	nop
	popq	%rbp
	.cfi_def_cfa 7, 8
	ret
	.cfi_endproc
.LFE9845:
	.size	_ZNSt13move_iteratorIPSt4pairIiiEEC2ES2_, .-_ZNSt13move_iteratorIPSt4pairIiiEEC2ES2_
	.weak	_ZNSt13move_iteratorIPSt4pairIiiEEC1ES2_
	.set	_ZNSt13move_iteratorIPSt4pairIiiEEC1ES2_,_ZNSt13move_iteratorIPSt4pairIiiEEC2ES2_
	.section	.text._ZSt18uninitialized_copyISt13move_iteratorIPSt4pairIiiEES3_ET0_T_S6_S5_,"axG",@progbits,_ZSt18uninitialized_copyISt13move_iteratorIPSt4pairIiiEES3_ET0_T_S6_S5_,comdat
	.weak	_ZSt18uninitialized_copyISt13move_iteratorIPSt4pairIiiEES3_ET0_T_S6_S5_
	.type	_ZSt18uninitialized_copyISt13move_iteratorIPSt4pairIiiEES3_ET0_T_S6_S5_, @function
_ZSt18uninitialized_copyISt13move_iteratorIPSt4pairIiiEES3_ET0_T_S6_S5_:
.LFB9847:
	.cfi_startproc
	pushq	%rbp
	.cfi_def_cfa_offset 16
	.cfi_offset 6, -16
	movq	%rsp, %rbp
	.cfi_def_cfa_register 6
	subq	$48, %rsp
	movq	%rdi, -24(%rbp)
	movq	%rsi, -32(%rbp)
	movq	%rdx, -40(%rbp)
	movb	$1, -1(%rbp)
	movq	-40(%rbp), %rdx
	movq	-32(%rbp), %rcx
	movq	-24(%rbp), %rax
	movq	%rcx, %rsi
	movq	%rax, %rdi
	call	_ZNSt20__uninitialized_copyILb0EE13__uninit_copyISt13move_iteratorIPSt4pairIiiEES5_EET0_T_S8_S7_
	leave
	.cfi_def_cfa 7, 8
	ret
	.cfi_endproc
.LFE9847:
	.size	_ZSt18uninitialized_copyISt13move_iteratorIPSt4pairIiiEES3_ET0_T_S6_S5_, .-_ZSt18uninitialized_copyISt13move_iteratorIPSt4pairIiiEES3_ET0_T_S6_S5_
	.section	.text._ZSt11__make_heapIN9__gnu_cxx17__normal_iteratorIPSt4pairIiiESt6vectorIS3_SaIS3_EEEENS0_5__ops15_Iter_less_iterEEvT_SB_RT0_,"axG",@progbits,_ZSt11__make_heapIN9__gnu_cxx17__normal_iteratorIPSt4pairIiiESt6vectorIS3_SaIS3_EEEENS0_5__ops15_Iter_less_iterEEvT_SB_RT0_,comdat
	.weak	_ZSt11__make_heapIN9__gnu_cxx17__normal_iteratorIPSt4pairIiiESt6vectorIS3_SaIS3_EEEENS0_5__ops15_Iter_less_iterEEvT_SB_RT0_
	.type	_ZSt11__make_heapIN9__gnu_cxx17__normal_iteratorIPSt4pairIiiESt6vectorIS3_SaIS3_EEEENS0_5__ops15_Iter_less_iterEEvT_SB_RT0_, @function
_ZSt11__make_heapIN9__gnu_cxx17__normal_iteratorIPSt4pairIiiESt6vectorIS3_SaIS3_EEEENS0_5__ops15_Iter_less_iterEEvT_SB_RT0_:
.LFB9848:
	.cfi_startproc
	pushq	%rbp
	.cfi_def_cfa_offset 16
	.cfi_offset 6, -16
	movq	%rsp, %rbp
	.cfi_def_cfa_register 6
	subq	$64, %rsp
	movq	%rdi, -40(%rbp)
	movq	%rsi, -48(%rbp)
	movq	%rdx, -56(%rbp)
	leaq	-40(%rbp), %rdx
	leaq	-48(%rbp), %rax
	movq	%rdx, %rsi
	movq	%rax, %rdi
	call	_ZN9__gnu_cxxmiIPSt4pairIiiESt6vectorIS2_SaIS2_EEEENS_17__normal_iteratorIT_T0_E15difference_typeERKSA_SD_
	cmpq	$1, %rax
	setle	%al
	testb	%al, %al
	jne	.L450
	leaq	-40(%rbp), %rdx
	leaq	-48(%rbp), %rax
	movq	%rdx, %rsi
	movq	%rax, %rdi
	call	_ZN9__gnu_cxxmiIPSt4pairIiiESt6vectorIS2_SaIS2_EEEENS_17__normal_iteratorIT_T0_E15difference_typeERKSA_SD_
	movq	%rax, -16(%rbp)
	movq	-16(%rbp), %rax
	subq	$2, %rax
	movq	%rax, %rdx
	shrq	$63, %rdx
	addq	%rdx, %rax
	sarq	%rax
	movq	%rax, -8(%rbp)
.L449:
	movq	-8(%rbp), %rdx
	leaq	-40(%rbp), %rax
	movq	%rdx, %rsi
	movq	%rax, %rdi
	call	_ZNK9__gnu_cxx17__normal_iteratorIPSt4pairIiiESt6vectorIS2_SaIS2_EEEplEl
	movq	%rax, -24(%rbp)
	leaq	-24(%rbp), %rax
	movq	%rax, %rdi
	call	_ZNK9__gnu_cxx17__normal_iteratorIPSt4pairIiiESt6vectorIS2_SaIS2_EEEdeEv
	movq	%rax, %rdi
	call	_ZSt4moveIRSt4pairIiiEEONSt16remove_referenceIT_E4typeEOS4_
	movq	(%rax), %rax
	movq	%rax, -32(%rbp)
	leaq	-32(%rbp), %rax
	movq	%rax, %rdi
	call	_ZSt4moveIRSt4pairIiiEEONSt16remove_referenceIT_E4typeEOS4_
	movq	%rax, %rcx
	movq	-16(%rbp), %rdx
	movq	-8(%rbp), %rsi
	movq	-40(%rbp), %rax
	movq	(%rcx), %rcx
	movq	%rax, %rdi
	call	_ZSt13__adjust_heapIN9__gnu_cxx17__normal_iteratorIPSt4pairIiiESt6vectorIS3_SaIS3_EEEElS3_NS0_5__ops15_Iter_less_iterEEvT_T0_SC_T1_T2_
	cmpq	$0, -8(%rbp)
	je	.L451
	subq	$1, -8(%rbp)
	jmp	.L449
.L450:
	nop
	jmp	.L445
.L451:
	nop
.L445:
	leave
	.cfi_def_cfa 7, 8
	ret
	.cfi_endproc
.LFE9848:
	.size	_ZSt11__make_heapIN9__gnu_cxx17__normal_iteratorIPSt4pairIiiESt6vectorIS3_SaIS3_EEEENS0_5__ops15_Iter_less_iterEEvT_SB_RT0_, .-_ZSt11__make_heapIN9__gnu_cxx17__normal_iteratorIPSt4pairIiiESt6vectorIS3_SaIS3_EEEENS0_5__ops15_Iter_less_iterEEvT_SB_RT0_
	.section	.text._ZN9__gnu_cxxltIPSt4pairIiiESt6vectorIS2_SaIS2_EEEEbRKNS_17__normal_iteratorIT_T0_EESC_,"axG",@progbits,_ZN9__gnu_cxxltIPSt4pairIiiESt6vectorIS2_SaIS2_EEEEbRKNS_17__normal_iteratorIT_T0_EESC_,comdat
	.weak	_ZN9__gnu_cxxltIPSt4pairIiiESt6vectorIS2_SaIS2_EEEEbRKNS_17__normal_iteratorIT_T0_EESC_
	.type	_ZN9__gnu_cxxltIPSt4pairIiiESt6vectorIS2_SaIS2_EEEEbRKNS_17__normal_iteratorIT_T0_EESC_, @function
_ZN9__gnu_cxxltIPSt4pairIiiESt6vectorIS2_SaIS2_EEEEbRKNS_17__normal_iteratorIT_T0_EESC_:
.LFB9849:
	.cfi_startproc
	pushq	%rbp
	.cfi_def_cfa_offset 16
	.cfi_offset 6, -16
	movq	%rsp, %rbp
	.cfi_def_cfa_register 6
	pushq	%rbx
	subq	$24, %rsp
	.cfi_offset 3, -24
	movq	%rdi, -24(%rbp)
	movq	%rsi, -32(%rbp)
	movq	-24(%rbp), %rax
	movq	%rax, %rdi
	call	_ZNK9__gnu_cxx17__normal_iteratorIPSt4pairIiiESt6vectorIS2_SaIS2_EEE4baseEv
	movq	(%rax), %rbx
	movq	-32(%rbp), %rax
	movq	%rax, %rdi
	call	_ZNK9__gnu_cxx17__normal_iteratorIPSt4pairIiiESt6vectorIS2_SaIS2_EEE4baseEv
	movq	(%rax), %rax
	cmpq	%rax, %rbx
	setb	%al
	addq	$24, %rsp
	popq	%rbx
	popq	%rbp
	.cfi_def_cfa 7, 8
	ret
	.cfi_endproc
.LFE9849:
	.size	_ZN9__gnu_cxxltIPSt4pairIiiESt6vectorIS2_SaIS2_EEEEbRKNS_17__normal_iteratorIT_T0_EESC_, .-_ZN9__gnu_cxxltIPSt4pairIiiESt6vectorIS2_SaIS2_EEEEbRKNS_17__normal_iteratorIT_T0_EESC_
	.section	.text._ZSt10__pop_heapIN9__gnu_cxx17__normal_iteratorIPSt4pairIiiESt6vectorIS3_SaIS3_EEEENS0_5__ops15_Iter_less_iterEEvT_SB_SB_RT0_,"axG",@progbits,_ZSt10__pop_heapIN9__gnu_cxx17__normal_iteratorIPSt4pairIiiESt6vectorIS3_SaIS3_EEEENS0_5__ops15_Iter_less_iterEEvT_SB_SB_RT0_,comdat
	.weak	_ZSt10__pop_heapIN9__gnu_cxx17__normal_iteratorIPSt4pairIiiESt6vectorIS3_SaIS3_EEEENS0_5__ops15_Iter_less_iterEEvT_SB_SB_RT0_
	.type	_ZSt10__pop_heapIN9__gnu_cxx17__normal_iteratorIPSt4pairIiiESt6vectorIS3_SaIS3_EEEENS0_5__ops15_Iter_less_iterEEvT_SB_SB_RT0_, @function
_ZSt10__pop_heapIN9__gnu_cxx17__normal_iteratorIPSt4pairIiiESt6vectorIS3_SaIS3_EEEENS0_5__ops15_Iter_less_iterEEvT_SB_SB_RT0_:
.LFB9850:
	.cfi_startproc
	pushq	%rbp
	.cfi_def_cfa_offset 16
	.cfi_offset 6, -16
	movq	%rsp, %rbp
	.cfi_def_cfa_register 6
	pushq	%rbx
	subq	$56, %rsp
	.cfi_offset 3, -24
	movq	%rdi, -40(%rbp)
	movq	%rsi, -48(%rbp)
	movq	%rdx, -56(%rbp)
	movq	%rcx, -64(%rbp)
	leaq	-56(%rbp), %rax
	movq	%rax, %rdi
	call	_ZNK9__gnu_cxx17__normal_iteratorIPSt4pairIiiESt6vectorIS2_SaIS2_EEEdeEv
	movq	%rax, %rdi
	call	_ZSt4moveIRSt4pairIiiEEONSt16remove_referenceIT_E4typeEOS4_
	movq	(%rax), %rax
	movq	%rax, -24(%rbp)
	leaq	-40(%rbp), %rax
	movq	%rax, %rdi
	call	_ZNK9__gnu_cxx17__normal_iteratorIPSt4pairIiiESt6vectorIS2_SaIS2_EEEdeEv
	movq	%rax, %rdi
	call	_ZSt4moveIRSt4pairIiiEEONSt16remove_referenceIT_E4typeEOS4_
	movq	%rax, %rbx
	leaq	-56(%rbp), %rax
	movq	%rax, %rdi
	call	_ZNK9__gnu_cxx17__normal_iteratorIPSt4pairIiiESt6vectorIS2_SaIS2_EEEdeEv
	movq	%rbx, %rsi
	movq	%rax, %rdi
	call	_ZNSt4pairIiiEaSEOS0_
	leaq	-24(%rbp), %rax
	movq	%rax, %rdi
	call	_ZSt4moveIRSt4pairIiiEEONSt16remove_referenceIT_E4typeEOS4_
	movq	%rax, %rbx
	leaq	-40(%rbp), %rdx
	leaq	-48(%rbp), %rax
	movq	%rdx, %rsi
	movq	%rax, %rdi
	call	_ZN9__gnu_cxxmiIPSt4pairIiiESt6vectorIS2_SaIS2_EEEENS_17__normal_iteratorIT_T0_E15difference_typeERKSA_SD_
	movq	%rax, %rdx
	movq	-40(%rbp), %rax
	movq	(%rbx), %rcx
	movl	$0, %esi
	movq	%rax, %rdi
	call	_ZSt13__adjust_heapIN9__gnu_cxx17__normal_iteratorIPSt4pairIiiESt6vectorIS3_SaIS3_EEEElS3_NS0_5__ops15_Iter_less_iterEEvT_T0_SC_T1_T2_
	nop
	addq	$56, %rsp
	popq	%rbx
	popq	%rbp
	.cfi_def_cfa 7, 8
	ret
	.cfi_endproc
.LFE9850:
	.size	_ZSt10__pop_heapIN9__gnu_cxx17__normal_iteratorIPSt4pairIiiESt6vectorIS3_SaIS3_EEEENS0_5__ops15_Iter_less_iterEEvT_SB_SB_RT0_, .-_ZSt10__pop_heapIN9__gnu_cxx17__normal_iteratorIPSt4pairIiiESt6vectorIS3_SaIS3_EEEENS0_5__ops15_Iter_less_iterEEvT_SB_SB_RT0_
	.section	.text._ZStltIiiEbRKSt4pairIT_T0_ES5_,"axG",@progbits,_ZStltIiiEbRKSt4pairIT_T0_ES5_,comdat
	.weak	_ZStltIiiEbRKSt4pairIT_T0_ES5_
	.type	_ZStltIiiEbRKSt4pairIT_T0_ES5_, @function
_ZStltIiiEbRKSt4pairIT_T0_ES5_:
.LFB9851:
	.cfi_startproc
	pushq	%rbp
	.cfi_def_cfa_offset 16
	.cfi_offset 6, -16
	movq	%rsp, %rbp
	.cfi_def_cfa_register 6
	movq	%rdi, -8(%rbp)
	movq	%rsi, -16(%rbp)
	movq	-8(%rbp), %rax
	movl	(%rax), %edx
	movq	-16(%rbp), %rax
	movl	(%rax), %eax
	cmpl	%eax, %edx
	jl	.L456
	movq	-16(%rbp), %rax
	movl	(%rax), %edx
	movq	-8(%rbp), %rax
	movl	(%rax), %eax
	cmpl	%eax, %edx
	jl	.L457
	movq	-8(%rbp), %rax
	movl	4(%rax), %edx
	movq	-16(%rbp), %rax
	movl	4(%rax), %eax
	cmpl	%eax, %edx
	jge	.L457
.L456:
	movl	$1, %eax
	jmp	.L458
.L457:
	movl	$0, %eax
.L458:
	popq	%rbp
	.cfi_def_cfa 7, 8
	ret
	.cfi_endproc
.LFE9851:
	.size	_ZStltIiiEbRKSt4pairIT_T0_ES5_, .-_ZStltIiiEbRKSt4pairIT_T0_ES5_
	.section	.text._ZSt9iter_swapIN9__gnu_cxx17__normal_iteratorIPSt4pairIiiESt6vectorIS3_SaIS3_EEEES8_EvT_T0_,"axG",@progbits,_ZSt9iter_swapIN9__gnu_cxx17__normal_iteratorIPSt4pairIiiESt6vectorIS3_SaIS3_EEEES8_EvT_T0_,comdat
	.weak	_ZSt9iter_swapIN9__gnu_cxx17__normal_iteratorIPSt4pairIiiESt6vectorIS3_SaIS3_EEEES8_EvT_T0_
	.type	_ZSt9iter_swapIN9__gnu_cxx17__normal_iteratorIPSt4pairIiiESt6vectorIS3_SaIS3_EEEES8_EvT_T0_, @function
_ZSt9iter_swapIN9__gnu_cxx17__normal_iteratorIPSt4pairIiiESt6vectorIS3_SaIS3_EEEES8_EvT_T0_:
.LFB9852:
	.cfi_startproc
	pushq	%rbp
	.cfi_def_cfa_offset 16
	.cfi_offset 6, -16
	movq	%rsp, %rbp
	.cfi_def_cfa_register 6
	pushq	%rbx
	subq	$24, %rsp
	.cfi_offset 3, -24
	movq	%rdi, -24(%rbp)
	movq	%rsi, -32(%rbp)
	leaq	-32(%rbp), %rax
	movq	%rax, %rdi
	call	_ZNK9__gnu_cxx17__normal_iteratorIPSt4pairIiiESt6vectorIS2_SaIS2_EEEdeEv
	movq	%rax, %rbx
	leaq	-24(%rbp), %rax
	movq	%rax, %rdi
	call	_ZNK9__gnu_cxx17__normal_iteratorIPSt4pairIiiESt6vectorIS2_SaIS2_EEEdeEv
	movq	%rbx, %rsi
	movq	%rax, %rdi
	call	_ZSt4swapIiiENSt9enable_ifIXsrSt6__and_IJSt14__is_swappableIT_ES2_IT0_EEE5valueEvE4typeERSt4pairIS3_S5_ESC_
	nop
	addq	$24, %rsp
	popq	%rbx
	popq	%rbp
	.cfi_def_cfa 7, 8
	ret
	.cfi_endproc
.LFE9852:
	.size	_ZSt9iter_swapIN9__gnu_cxx17__normal_iteratorIPSt4pairIiiESt6vectorIS3_SaIS3_EEEES8_EvT_T0_, .-_ZSt9iter_swapIN9__gnu_cxx17__normal_iteratorIPSt4pairIiiESt6vectorIS3_SaIS3_EEEES8_EvT_T0_
	.section	.text._ZSt12__miter_baseIN9__gnu_cxx17__normal_iteratorIPSt4pairIiiESt6vectorIS3_SaIS3_EEEEET_S9_,"axG",@progbits,_ZSt12__miter_baseIN9__gnu_cxx17__normal_iteratorIPSt4pairIiiESt6vectorIS3_SaIS3_EEEEET_S9_,comdat
	.weak	_ZSt12__miter_baseIN9__gnu_cxx17__normal_iteratorIPSt4pairIiiESt6vectorIS3_SaIS3_EEEEET_S9_
	.type	_ZSt12__miter_baseIN9__gnu_cxx17__normal_iteratorIPSt4pairIiiESt6vectorIS3_SaIS3_EEEEET_S9_, @function
_ZSt12__miter_baseIN9__gnu_cxx17__normal_iteratorIPSt4pairIiiESt6vectorIS3_SaIS3_EEEEET_S9_:
.LFB9853:
	.cfi_startproc
	pushq	%rbp
	.cfi_def_cfa_offset 16
	.cfi_offset 6, -16
	movq	%rsp, %rbp
	.cfi_def_cfa_register 6
	movq	%rdi, -8(%rbp)
	movq	-8(%rbp), %rax
	popq	%rbp
	.cfi_def_cfa 7, 8
	ret
	.cfi_endproc
.LFE9853:
	.size	_ZSt12__miter_baseIN9__gnu_cxx17__normal_iteratorIPSt4pairIiiESt6vectorIS3_SaIS3_EEEEET_S9_, .-_ZSt12__miter_baseIN9__gnu_cxx17__normal_iteratorIPSt4pairIiiESt6vectorIS3_SaIS3_EEEEET_S9_
	.section	.text._ZSt23__copy_move_backward_a2ILb1EN9__gnu_cxx17__normal_iteratorIPSt4pairIiiESt6vectorIS3_SaIS3_EEEES8_ET1_T0_SA_S9_,"axG",@progbits,_ZSt23__copy_move_backward_a2ILb1EN9__gnu_cxx17__normal_iteratorIPSt4pairIiiESt6vectorIS3_SaIS3_EEEES8_ET1_T0_SA_S9_,comdat
	.weak	_ZSt23__copy_move_backward_a2ILb1EN9__gnu_cxx17__normal_iteratorIPSt4pairIiiESt6vectorIS3_SaIS3_EEEES8_ET1_T0_SA_S9_
	.type	_ZSt23__copy_move_backward_a2ILb1EN9__gnu_cxx17__normal_iteratorIPSt4pairIiiESt6vectorIS3_SaIS3_EEEES8_ET1_T0_SA_S9_, @function
_ZSt23__copy_move_backward_a2ILb1EN9__gnu_cxx17__normal_iteratorIPSt4pairIiiESt6vectorIS3_SaIS3_EEEES8_ET1_T0_SA_S9_:
.LFB9854:
	.cfi_startproc
	pushq	%rbp
	.cfi_def_cfa_offset 16
	.cfi_offset 6, -16
	movq	%rsp, %rbp
	.cfi_def_cfa_register 6
	pushq	%r12
	pushq	%rbx
	subq	$32, %rsp
	.cfi_offset 12, -24
	.cfi_offset 3, -32
	movq	%rdi, -24(%rbp)
	movq	%rsi, -32(%rbp)
	movq	%rdx, -40(%rbp)
	movq	-40(%rbp), %rax
	movq	%rax, %rdi
	call	_ZSt12__niter_baseIPSt4pairIiiESt6vectorIS1_SaIS1_EEET_N9__gnu_cxx17__normal_iteratorIS6_T0_EE
	movq	%rax, %r12
	movq	-32(%rbp), %rax
	movq	%rax, %rdi
	call	_ZSt12__niter_baseIPSt4pairIiiESt6vectorIS1_SaIS1_EEET_N9__gnu_cxx17__normal_iteratorIS6_T0_EE
	movq	%rax, %rbx
	movq	-24(%rbp), %rax
	movq	%rax, %rdi
	call	_ZSt12__niter_baseIPSt4pairIiiESt6vectorIS1_SaIS1_EEET_N9__gnu_cxx17__normal_iteratorIS6_T0_EE
	movq	%r12, %rdx
	movq	%rbx, %rsi
	movq	%rax, %rdi
	call	_ZSt22__copy_move_backward_aILb1EPSt4pairIiiES2_ET1_T0_S4_S3_
	movq	%rax, %rdx
	movq	-40(%rbp), %rax
	movq	%rdx, %rsi
	movq	%rax, %rdi
	call	_ZSt12__niter_wrapIN9__gnu_cxx17__normal_iteratorIPSt4pairIiiESt6vectorIS3_SaIS3_EEEES4_ET_S9_T0_
	addq	$32, %rsp
	popq	%rbx
	popq	%r12
	popq	%rbp
	.cfi_def_cfa 7, 8
	ret
	.cfi_endproc
.LFE9854:
	.size	_ZSt23__copy_move_backward_a2ILb1EN9__gnu_cxx17__normal_iteratorIPSt4pairIiiESt6vectorIS3_SaIS3_EEEES8_ET1_T0_SA_S9_, .-_ZSt23__copy_move_backward_a2ILb1EN9__gnu_cxx17__normal_iteratorIPSt4pairIiiESt6vectorIS3_SaIS3_EEEES8_ET1_T0_SA_S9_
	.section	.text._ZNK9__gnu_cxx5__ops14_Val_less_iterclISt4pairIiiENS_17__normal_iteratorIPS4_St6vectorIS4_SaIS4_EEEEEEbRT_T0_,"axG",@progbits,_ZNK9__gnu_cxx5__ops14_Val_less_iterclISt4pairIiiENS_17__normal_iteratorIPS4_St6vectorIS4_SaIS4_EEEEEEbRT_T0_,comdat
	.align 2
	.weak	_ZNK9__gnu_cxx5__ops14_Val_less_iterclISt4pairIiiENS_17__normal_iteratorIPS4_St6vectorIS4_SaIS4_EEEEEEbRT_T0_
	.type	_ZNK9__gnu_cxx5__ops14_Val_less_iterclISt4pairIiiENS_17__normal_iteratorIPS4_St6vectorIS4_SaIS4_EEEEEEbRT_T0_, @function
_ZNK9__gnu_cxx5__ops14_Val_less_iterclISt4pairIiiENS_17__normal_iteratorIPS4_St6vectorIS4_SaIS4_EEEEEEbRT_T0_:
.LFB9855:
	.cfi_startproc
	pushq	%rbp
	.cfi_def_cfa_offset 16
	.cfi_offset 6, -16
	movq	%rsp, %rbp
	.cfi_def_cfa_register 6
	subq	$32, %rsp
	movq	%rdi, -8(%rbp)
	movq	%rsi, -16(%rbp)
	movq	%rdx, -24(%rbp)
	leaq	-24(%rbp), %rax
	movq	%rax, %rdi
	call	_ZNK9__gnu_cxx17__normal_iteratorIPSt4pairIiiESt6vectorIS2_SaIS2_EEEdeEv
	movq	%rax, %rdx
	movq	-16(%rbp), %rax
	movq	%rdx, %rsi
	movq	%rax, %rdi
	call	_ZStltIiiEbRKSt4pairIT_T0_ES5_
	leave
	.cfi_def_cfa 7, 8
	ret
	.cfi_endproc
.LFE9855:
	.size	_ZNK9__gnu_cxx5__ops14_Val_less_iterclISt4pairIiiENS_17__normal_iteratorIPS4_St6vectorIS4_SaIS4_EEEEEEbRT_T0_, .-_ZNK9__gnu_cxx5__ops14_Val_less_iterclISt4pairIiiENS_17__normal_iteratorIPS4_St6vectorIS4_SaIS4_EEEEEEbRT_T0_
	.section	.text._ZNK9__gnu_cxx13new_allocatorISt10_List_nodeIiEE8max_sizeEv,"axG",@progbits,_ZNK9__gnu_cxx13new_allocatorISt10_List_nodeIiEE8max_sizeEv,comdat
	.align 2
	.weak	_ZNK9__gnu_cxx13new_allocatorISt10_List_nodeIiEE8max_sizeEv
	.type	_ZNK9__gnu_cxx13new_allocatorISt10_List_nodeIiEE8max_sizeEv, @function
_ZNK9__gnu_cxx13new_allocatorISt10_List_nodeIiEE8max_sizeEv:
.LFB9913:
	.cfi_startproc
	pushq	%rbp
	.cfi_def_cfa_offset 16
	.cfi_offset 6, -16
	movq	%rsp, %rbp
	.cfi_def_cfa_register 6
